(dp1
(S'now?"'
p2
S'"I\'d'
p3
tp4
(lp5
S'do'
p6
as(S'care'
p7
S'about'
p8
tp9
(lp10
S'me."'
p11
aS'me."'
p12
aS'you."'
p13
aS'me.'
p14
as(S'to'
p15
S'thank'
p16
tp17
(lp18
S'her.'
p19
as(S'fine,"'
p20
S'she'
p21
tp22
(lp23
S'said.'
p24
as(S'painted'
p25
S'something'
p26
tp27
(lp28
S'on'
p29
as(S'do.'
p30
S'But'
p31
tp32
(lp33
S'I'
as(S'grain'
p34
S'and'
p35
tp36
(lp37
S'trees'
p38
aS'she'
p39
as(S'doorway.'
p40
S'"Yes.'
p41
tp42
(lp43
S'Two'
p44
as(S'train.'
p45
S'Coming'
p46
tp47
(lp48
S'back,'
p49
as(S'Close'
p50
S'against'
p51
tp52
(lp53
S'the'
p54
as(S'the'
p55
S'trees.'
p56
tp57
(lp58
S'"And'
p59
as(S'I'
S"don't"
p60
tp61
(lp62
S'want'
p63
ag7
aS'care'
p64
aS'want'
p65
aS'want'
p66
aS'want'
p67
aS'want'
p68
as(S'know'
p69
S'how'
p70
tp71
(lp72
S'I'
as(S'girl.'
p73
S'The'
p74
tp75
(lp76
S'girl'
p77
as(S'asked'
p78
S'from'
p79
tp80
(lp81
S'the'
p82
as(S'could'
p83
S'have'
p84
tp85
(lp86
S'all'
p87
aS'everything'
p88
aS'everything."'
p89
as(S'labels'
p90
S'on'
p91
tp92
(lp93
S'them'
p94
as(S'see."'
p95
S'"Come'
p96
tp97
(lp98
S'on'
p99
as(S'shade,'
p100
S'outside'
p101
tp102
(lp103
S'the'
p104
as(S'try'
p105
S'it?"'
p106
tp107
(lp108
S'The'
p109
as(S'looked'
p110
S'like'
p111
tp112
(lp113
S'white'
p114
as(S'get'
p115
S'when'
p116
tp117
(lp118
S'I'
as(g63
S'you'
p119
tp120
(lp121
S'to'
p122
aS'to'
p123
aS'to'
p124
aS'to'
p125
aS'to,"'
p126
as(g99
S'back'
p127
tp128
(lp129
S'in'
p130
as(g29
S'it,"'
p131
tp132
(lp133
S'she'
p134
as(S'"Of'
p135
S'course'
p136
tp137
(lp138
S'it'
p139
as(S'that'
p140
S'bothers'
p141
tp142
(lp143
S'us.'
p144
as(S'at'
p145
S'him.'
p146
tp147
(lp148
S'"All'
p149
aS'"Do'
p150
as(S'"Do'
p151
S'you'
p152
tp153
(lp154
S'want'
p155
aS'feel'
p156
as(S'girl'
p157
S'looked'
p158
tp159
(lp160
S'at'
p161
aS'across'
p162
aS'at'
p163
aS'at'
p164
aS'across'
p165
as(S'world."'
p166
S'"No,'
p167
tp168
(lp169
S'we'
p170
as(S'out'
p171
S'and'
p172
tp173
(lp174
S'took'
p175
as(S'They'
p176
S'were'
p177
tp178
(lp179
S'white'
p180
aS'all'
p181
as(S'all."'
p182
S'The'
p183
tp184
(lp185
S'girl'
p186
as(S'know'
p187
S'it."'
p188
tp189
(lp190
S'"Would'
p191
as(S'could'
p192
S'get'
p193
tp194
(lp195
S'along."'
p196
as(S'"Well,'
p197
S"let's"
p198
tp199
(lp200
S'try'
p201
as(S'I'
S'know'
p202
tp203
(lp204
S"it's"
p205
aS"it's"
p206
as(S'"The'
p207
S'train'
p208
tp209
(lp210
S'comes'
p211
as(g91
g94
tp212
(lp213
S'from'
p214
as(S'"And'
p215
S'you'
p216
tp217
(lp218
S'think'
p219
aS'really'
p220
as(S'up'
p221
S'the'
p222
tp223
(lp224
S'two'
p225
aS'tracks'
p226
as(S'coloring'
p227
S'of'
p228
tp229
(lp230
S'their'
p231
as(g231
S'skin'
p232
tp233
(lp234
S'through'
p235
as(S'it."'
p236
S'"So'
p237
tp238
(lp239
S'have'
p240
as(S'it,'
p241
S'then'
p242
tp243
(lp244
S'it'
p245
as(S'But'
p246
S'I'
tp247
(lp248
g202
ag60
aS"don't"
p249
aS"don't"
p250
as(S'called'
p251
S'"Listen"'
p252
tp253
(lp254
S'through'
p255
as(S'the'
p256
S'whole'
p257
tp258
(lp259
g166
as(S'"And'
p260
S'afterwards'
p261
tp262
(lp263
S'they'
p264
as(S'out'
p265
S'flies.'
p266
tp267
(lp268
S'The'
p269
as(S'"I'
p270
S'realize,"'
p271
tp272
(lp273
S'the'
p274
as(S'put'
p275
S'her'
p276
tp277
(lp278
S'hand'
p279
as(S'the'
p280
S'line'
p281
tp282
(lp283
S'of'
p284
as(S'There'
p285
S'were'
p286
tp287
(lp288
g90
as(S'the'
p289
S'bar-room,'
p290
tp291
(lp292
S'where'
p293
as(S'other'
p294
S'side'
p295
tp296
(lp297
S'of'
p298
as(S'for'
p299
S'you."'
p300
tp301
(lp302
S'"Would'
p303
as(S'out'
p304
S'through'
p305
tp306
(lp307
S'the'
p308
aS'the'
p309
as(S'down'
p310
S'at'
p311
tp312
(lp313
S'the'
p314
as(S'come'
p315
S'in'
p316
tp317
(lp318
S'forty'
p319
as(S'again'
p320
S'if'
p321
tp322
(lp323
S'I'
as(S'of'
p324
S'the'
p325
tp326
(lp327
S'Ebro'
p328
aS'station'
p329
aS'building'
p330
aS'strings'
p331
aS'station.'
p332
aS'Ebro.'
p333
aS'valley'
p334
aS'station.'
p335
aS'station,"'
p336
as(S'door'
p337
S'into'
p338
tp339
(lp340
S'the'
p341
as(S"It's"
p342
S'a'
tp343
(lp344
S'drink."'
p345
as(g196
g135
tp346
(lp347
g136
as(S"mustn't"
p348
S'feel'
p349
tp350
(lp351
S'that'
p352
as(S'more'
p353
S'impossible."'
p354
tp355
(lp356
S'"What'
p357
as(g242
g245
tp358
(lp359
S'will'
p360
as(S'drink?"'
p361
S'"All'
p362
tp363
(lp364
S'right."'
p365
as(g3
g6
tp366
(lp367
S'anything'
p368
as(S'Jig,"'
p369
S'the'
p370
tp371
(lp372
S'man'
p373
as(S'And'
p374
S'once'
p375
tp376
(lp377
S'they'
p378
as(S'his'
p379
S'beer.'
p380
tp381
(lp382
S'"No,'
p383
as(S'really'
p384
S'not'
p385
tp386
(lp387
S'anything.'
p388
as(S'everything."'
p389
S'"No,'
p390
tp391
(lp392
S'we'
p393
as(S'did'
p394
S'she'
p395
tp396
(lp397
S'say?"'
p398
as(S'girl'
p399
S'stood'
p400
tp401
(lp402
S'up'
p403
as(S'everything'
p404
S'will'
p405
tp406
(lp407
S'be'
p408
as(S'have'
p409
S'done'
p410
tp411
(lp412
g236
as(S'Toro."'
p413
S'"With'
p414
tp415
(lp416
S'water?"'
p417
as(S'happy."'
p418
S'"Well,"'
p419
tp420
(lp421
S'the'
p422
as(g264
S'were'
p423
tp424
(lp425
S'all'
p426
aS'and'
p427
as(S'nothing'
p428
S'wrong'
p429
tp430
(lp431
S'with'
p432
as(S'at'
p433
S'a'
tp434
(lp435
S'table'
p436
as(S'and'
p437
S'walked'
p438
tp439
(lp440
S'to'
p441
as(S'The'
p442
S'woman'
p443
tp444
(lp445
S'brought'
p446
aS'came'
p447
aS'came'
p448
as(S'"Can\'t'
p449
S'we'
p450
tp451
(lp452
S'maybe'
p453
as(S'I'
S'say'
p454
tp455
(lp456
S'things'
p457
as(S'to.'
p458
S'I'
tp459
(lp460
S"wouldn't"
p461
as(S'down.'
p462
S'"That\'s'
p463
tp464
(lp465
S'the'
p466
as(S'He'
p467
S'did'
p468
tp469
(lp470
S'not'
p471
as(S'out."'
p472
S'"You'
p473
tp474
(lp475
S'started'
p476
as(S'did'
p477
S'not'
p478
tp479
(lp480
S'say'
p481
aS'say'
p482
as(S'But'
p483
S'if'
p484
tp485
(lp486
S'I'
as(g119
g122
tp487
(lp488
S'do'
p489
aS'do'
p490
aS'do'
p491
aS'do'
p492
aS'say'
p493
as(g257
g166
tp494
(lp495
g167
as(S'The'
p496
S'shadow'
p497
tp498
(lp499
S'of'
p500
as(S'reasonably'
p501
S'for'
p502
tp503
(lp504
S'the'
p505
as(S'said'
p506
S'we'
p507
tp508
(lp509
S'could'
p510
as(S'drink'
p511
S'beer."'
p512
tp513
(lp514
S'"Dos'
p515
as(S'fine'
p516
S'afterwards.'
p517
tp518
(lp519
S'Just'
p520
as(S'lots'
p521
S'of'
p522
tp523
(lp524
S'people'
p525
as(g84
g87
tp526
(lp527
S'this,"'
p528
as(S'said.'
p529
S'"And'
p530
tp531
(lp532
S'we'
p533
as(g114
S'elephants.'
p534
tp535
(lp536
S"Wasn't"
p537
aS'I'
as(g131
g134
tp538
(lp539
S'said.'
p540
as(g193
g196
tp541
(lp542
g135
as(S'beer?"'
p543
S'"All'
p544
tp545
(lp546
S'right.'
p547
as(S"isn't"
p548
S'ours'
p549
tp550
(lp551
S'any'
p552
as(g266
g269
tp553
(lp554
S'American'
p555
as(S'please'
p556
S'stop'
p557
tp558
(lp559
S'talking?"'
p560
as(S'can'
p561
S'go'
p562
tp563
(lp564
S'everywhere."'
p565
as(g269
g555
tp566
(lp567
S'and'
p568
as(g225
S'heavy'
p569
tp570
(lp571
S'bags'
p572
as(S'Far'
p573
S'away,'
p574
tp575
(lp576
S'beyond'
p577
as(S'it'
p578
S'if'
p579
tp580
(lp581
S'you'
p582
aS'you'
p583
aS'you'
p584
aS'you'
p585
aS'it'
p586
as(S'hung'
p587
S'across'
p588
tp589
(lp590
S'the'
p591
as(S'drink?"'
p592
S'the'
p593
tp594
(lp595
S'girl'
p596
as(S'would'
p597
g315
tp598
(lp599
g316
as(S'She'
p600
S'was'
p601
tp602
(lp603
S'sitting'
p604
as(S'felt'
p605
S'pads.'
p606
tp607
(lp608
S'She'
p609
ag207
as(S'girl.'
p610
S'"Everything'
p611
tp612
(lp613
S'tastes'
p614
as(g77
S'was'
p615
tp616
(lp617
S'looking'
p618
as(S'I'
S'care'
p619
tp620
(lp621
S'about'
p622
as(g175
S'hold'
p623
tp624
(lp625
S'of'
p626
as(S'have'
p627
g89
tp628
(lp629
S'"We'
p630
ag390
as(S"isn't"
p631
S'good'
p632
tp633
(lp634
S'for'
p635
as(g385
g388
tp636
(lp637
S"It's"
p638
as(S'then'
p639
S"it's"
p640
tp641
(lp642
S'all'
p643
as(S'you'
p644
S"wouldn't"
p645
tp646
(lp647
S'have."'
p648
aS'mind'
p649
as(S'all'
p650
S'right'
p651
tp652
(lp653
S'and'
p654
aS'for'
p655
as(S'simple."'
p656
S'"It\'s'
p657
tp658
(lp659
S'all'
p660
as(S'curtain,'
p661
g275
tp662
(lp663
g276
as(S'then'
p664
S"we'll"
p665
tp666
(lp667
S'be'
p668
as(S'"You\'ve'
p669
S'got'
p670
tp671
(lp672
S'to'
p673
as(S'girl'
p674
S'smiled'
p675
tp676
(lp677
S'brightly'
p678
as(S'new'
p679
S'drinks?"'
p680
tp681
(lp682
S'"I'
p683
as(S'junction'
p684
S'for'
p685
tp686
(lp687
S'two'
p688
as(S'like'
p689
S'it?"'
p690
tp691
(lp692
S'"I\'ll'
p693
as(S'I'
S'worry."'
p694
tp695
(lp696
S'"If'
p697
as(S'things'
p698
S"you've"
p699
tp700
(lp701
S'waited'
p702
as(S'was'
p703
S'bright."'
p704
tp705
(lp706
S'"I'
p707
as(S'know'
p708
S'we'
p709
tp710
(lp711
S'will.'
p712
as(g438
g441
tp713
(lp714
S'the'
p715
as(g395
g398
tp716
(lp717
S'asked'
p718
as(g709
g712
tp719
(lp720
S'Yon'
p721
as(S'new'
p722
S'drink.'
p723
tp724
(lp725
S"That's"
p726
as(S'The'
p727
S'hills'
p728
tp729
(lp730
S'across'
p731
as(S'"They\'ve'
p732
g25
tp733
(lp734
g26
as(g665
g668
tp735
(lp736
g650
as(S'is'
p737
S'coming'
p738
tp739
(lp740
S'in'
p741
as(S'"Big'
p742
S'ones?"'
p743
tp744
(lp745
S'a'
as(S'said.'
p746
S'"It\'s'
p747
tp748
(lp749
S'lovely,"'
p750
aS'really'
p751
aS'not'
p752
as(g94
g214
tp753
(lp754
S'all'
p755
as(S'warm'
p756
S'wind'
p757
tp758
(lp759
S'blew'
p760
as(g522
g525
tp761
(lp762
S'that'
p763
as(S'man'
p764
S'said,'
p765
tp766
(lp767
S'"if'
p768
as(S'unhappy."'
p769
S'The'
p770
tp771
(lp772
S'girl'
p773
as(S'curtains'
p774
S'with'
p775
tp776
(lp777
S'two'
p778
as(g694
g697
tp779
(lp780
S'I'
as(S'was'
p781
S'trying.'
p782
tp783
(lp784
S'I'
as(S'of'
p785
S'beads.'
p786
tp787
(lp788
g215
as(S'cervezas,"'
p789
S'the'
p790
tp791
(lp792
S'man'
p793
as(g463
g466
tp794
(lp795
S'way'
p796
aS'only'
p797
as(S'absinthe."'
p798
S'"Oh,'
p799
tp800
(lp801
S'cut'
p802
as(S'legs'
p803
S'rested'
p804
tp805
(lp806
S'on.'
p807
as(S'ground'
p808
S'the'
p809
tp810
(lp811
S'table'
p812
as(S'had'
p813
S'taken'
p814
tp815
(lp816
S'off'
p817
as(S'stopped'
p818
S'at'
p819
tp820
(lp821
S'this'
p822
as(S'the'
p823
S'best'
p824
tp825
(lp826
S'thing'
p827
as(S'"There\'s'
p828
g428
tp829
(lp830
g429
as(S'went'
p831
S'to'
p832
tp833
(lp834
S'Madrid.'
p835
as(S'feel'
p836
g20
tp837
(lp838
g21
as(S'at'
p839
S'her'
p840
tp841
(lp842
S'and'
p843
as(g44
S'big'
p844
tp845
(lp846
S'ones."'
p847
as(g19
S'"I\'d'
p848
tp849
(lp850
S'better'
p851
as(S'Especially'
p852
S'all'
p853
tp854
(lp855
S'the'
p856
as(S'mountains'
p857
g110
tp858
(lp859
g111
as(S'side,'
p860
S'were'
p861
tp862
(lp863
S'fields'
p864
as(g853
g856
tp865
(lp866
g698
aS'time.'
p867
aS'hotels'
p868
as(S"you've"
p869
S'got'
p870
tp871
(lp872
S'to'
p873
as(S'mean'
p874
S'anything'
p875
tp876
(lp877
S'to'
p878
as(S'please'
p879
S'please'
p880
tp881
(lp882
S'please'
p883
aS'please'
p884
aS'please'
p885
aS'please'
p886
ag556
ag557
as(S'taken'
p887
S'it'
p888
tp889
(lp890
S'away."'
p891
as(g618
S'off'
p892
tp893
(lp894
S'at'
p895
as(S'away,'
p896
S'you'
p897
tp898
(lp899
S'never'
p900
as(S'strings'
p901
S'of'
p902
tp903
(lp904
S'bamboo'
p905
ag786
as(S'simple."'
p906
S'"Then'
p907
tp908
(lp909
S"I'll"
p910
as(S'care'
p911
S'anything'
p912
tp913
(lp914
S'about'
p915
as(S'We'
p916
g192
tp917
(lp918
g193
as(S'"I'
p919
S'might'
p920
tp921
(lp922
S'have,"'
p923
as(S'fine'
p924
S'time."'
p925
tp926
(lp927
g197
aS'"All'
p928
as(S'of'
p929
S'beer'
p930
tp931
(lp932
S'and'
p933
aS'and'
p934
as(g388
g638
tp935
(lp936
S'just'
p937
as(g222
g225
tp938
(lp939
g569
as(S'minutes.'
p940
S'It'
p941
tp942
(lp943
g818
as(S'white'
p944
S'elephants,'
p945
tp946
(lp947
S'and'
p948
as(S'banks'
p949
S'of'
p950
tp951
(lp952
S'the'
p953
as(g328
S'were'
p954
tp955
(lp956
S'long'
p957
as(S'"Well,'
p958
S'I'
tp959
(lp960
g619
as(S'the'
p961
g336
tp962
(lp963
S'the'
p964
as(g122
g489
tp965
(lp966
S'it'
p967
aS'it'
p968
aS'anything'
p969
aS'it'
p970
as(g66
S'anybody'
p971
tp972
(lp973
S'but'
p974
as(S'love'
p975
S'you."'
p976
tp977
(lp978
S'"I'
p979
as(S'She'
p980
S'smiled'
p981
tp982
(lp983
g145
as(S'looked'
p984
S'up'
p985
tp986
(lp987
S'the'
p988
as(S'have'
p989
S'to'
p990
tp991
(lp992
S'be'
p993
as(S'say?"'
p994
S'"I'
p995
tp996
(lp997
g506
as(S'table.'
p998
g669
tp999
(lp1000
g670
as(S'and'
p1001
S'no'
p1002
tp1003
(lp1004
S'trees'
p1005
as(S"don't"
p1006
S'know,"'
p1007
tp1008
(lp1009
S'the'
p1010
as(S"isn't"
p1011
S'it\x97look'
p1012
tp1013
(lp1014
S'at'
p1015
as(S'The'
p1016
g756
tp1017
(lp1018
g757
as(g937
S'to'
p1019
tp1020
(lp1021
S'let'
p1022
as(S'curtain.'
p1023
g742
tp1024
(lp1025
g743
as(S'wait'
p1026
S'and'
p1027
tp1028
(lp1029
g95
as(S'cool,"'
p1030
S'the'
p1031
tp1032
(lp1033
S'man'
p1034
as(S'be'
p1035
S'happy'
p1036
tp1037
(lp1038
S'and'
p1039
as(S'about'
p1040
S'that'
p1041
tp1042
(lp1043
S'because'
p1044
as(S'do'
p1045
g187
tp1046
(lp1047
g188
as(S"I'm"
p1048
S'perfectly'
p1049
tp1050
(lp1051
S'willing'
p1052
as(S'to.'
p1053
g1048
tp1054
(lp1055
g1049
as(S'warm'
p1056
S'shadow'
p1057
tp1058
(lp1059
S'of'
p1060
as(S'guess'
p1061
S'so."'
p1062
tp1063
(lp1064
S'The'
p1065
as(S'asked.'
p1066
S'"I'
p1067
tp1068
(lp1069
g836
as(S'do'
p1070
S'afterwards?"'
p1071
tp1072
(lp1073
S'"We\'ll'
p1074
as(S'we'
p1075
g1070
tp1076
(lp1077
g1071
as(S'be'
p1078
S'like'
p1079
tp1080
(lp1081
S'they'
p1082
as(S'awfully'
p1083
S'simple'
p1084
tp1085
(lp1086
S'operation,'
p1087
as(S'and'
p1088
g39
tp1089
(lp1090
S'saw'
p1091
as(S'was'
p1092
S'no'
p1093
tp1094
(lp1095
S'shade'
p1096
as(S'"And'
p1097
S'if'
p1098
tp1099
(lp1100
S'I'
as(g643
S'perfectly'
p1101
tp1102
(lp1103
S'natural."'
p1104
as(S'bar.'
p1105
S'"Four'
p1106
tp1107
(lp1108
S'reales."'
p1109
as(S'trees."'
p1110
S'"Should'
p1111
tp1112
(lp1113
S'we'
p1114
as(S'and'
p1115
g639
tp1116
(lp1117
g640
ag404
as(S'minutes,"'
p1118
S'she'
p1119
tp1120
(lp1121
S'said.'
p1122
as(g515
g789
tp1123
(lp1124
g790
as(g79
g82
tp1125
(lp1126
g40
ag1105
as(S'I'
S'do'
p1127
tp1128
(lp1129
S'it'
p1130
ag241
aS'it'
p1131
ag187
as(g67
S'anyone'
p1132
tp1133
(lp1134
S'else.'
p1135
as(S'del'
p1136
S'Toro.'
p1137
tp1138
(lp1139
g342
as(S'love'
p1140
S'it'
p1141
tp1142
(lp1143
S'now'
p1144
as(S"we'll"
p1145
S'finish'
p1146
tp1147
(lp1148
S'the'
p1149
as(S'were'
p1150
g427
tp1151
(lp1152
S"you'll"
p1153
as(g1146
g1149
tp1154
(lp1155
S'beer."'
p1156
as(S'said.'
p1157
S'"You'
p1158
tp1159
(lp1160
g348
as(S'it'
p1161
S'on'
p1162
tp1163
(lp1164
S'the'
p1165
as(S'glass'
p1166
S'on'
p1167
tp1168
(lp1169
S'the'
p1170
as(S"I'll"
p1171
S'stay'
p1172
tp1173
(lp1174
S'with'
p1175
as(S'"It\'s'
p1176
S'all'
p1177
tp1178
(lp1179
S'right."'
p1180
aS'right'
p1181
as(g693
S'love'
p1182
tp1183
(lp1184
S'it.'
p1185
as(g35
g38
tp1186
(lp1187
S'along'
p1188
as(g208
g211
tp1189
(lp1190
S'in'
p1191
as(g144
S"It's"
p1192
tp1193
(lp1194
S'the'
p1195
as(S'cloud'
p1196
S'moved'
p1197
tp1198
(lp1199
S'across'
p1200
as(g51
g54
tp1201
(lp1202
S'side'
p1203
aS'table.'
p1204
aS'wall'
p1205
as(g723
g726
tp1206
(lp1207
S'all'
p1208
as(S'But'
p1209
g869
tp1210
(lp1211
g870
as(S'woman'
p1212
g78
tp1213
(lp1214
g79
as(g775
g778
tp1215
(lp1216
S'glasses'
p1217
as(S'asked.'
p1218
S'She'
p1219
tp1220
(lp1221
g813
as(S'said'
p1222
S'the'
p1223
tp1224
(lp1225
g610
ag857
aS'girl.'
p1226
as(S'rails'
p1227
S'in'
p1228
tp1229
(lp1230
S'the'
p1231
as(g572
S'and'
p1232
tp1233
(lp1234
S'carried'
p1235
as(g1177
g1180
tp1236
(lp1237
S'"You'
p1238
as(g414
g417
tp1239
(lp1240
g151
as(g1191
S'five'
p1241
tp1242
(lp1243
g1118
aS'minutes."'
p1244
as(S'that'
p1245
S'bright?"'
p1246
tp1247
(lp1248
S'"That'
p1249
as(g70
S'I'
tp1250
(lp1251
g115
as(g126
S'he'
p1252
tp1253
(lp1254
S'said,'
p1255
as(g375
g378
tp1256
(lp1257
S'take'
p1258
as(S'you'
p1259
S'and'
p1260
tp1261
(lp1262
g1171
as(g1188
S'the'
p1263
tp1264
(lp1265
g949
as(S'country'
p1266
S'was'
p1267
tp1268
(lp1269
S'brown'
p1270
as(S'was'
p1271
S'very'
p1272
tp1273
(lp1274
S'hot'
p1275
as(S'other'
p1276
g860
tp1277
(lp1278
g861
as(g1241
g1118
tp1279
(lp1280
g1119
as(S'looked'
p1281
S'at'
p1282
tp1283
(lp1284
S'the'
p1285
aS'the'
p1286
aS'the'
p1287
aS'the'
p1288
ag840
aS'the'
p1289
aS'the'
p1290
as(S'"Yes,"'
p1291
g1222
tp1292
(lp1293
g1223
as(g1228
g1231
tp1294
(lp1295
S'sun.'
p1296
ag100
aS'sun'
p1297
aS'shade,"'
p1298
as(S'the'
p1299
S'damp'
p1300
tp1301
(lp1302
S'felt'
p1303
as(S'"Could'
p1304
S'we'
p1305
tp1306
(lp1307
g105
as(S'to."'
p1308
g1097
tp1309
(lp1310
g1098
as(g1226
g260
tp1311
(lp1312
g261
as(g988
g226
tp1313
(lp1314
S'but'
p1315
as(g902
g905
tp1316
(lp1317
S'beads,'
p1318
as(g319
g940
tp1319
(lp1320
g941
as(S'and'
p1321
S'the'
p1322
tp1323
(lp1324
S'station'
p1325
aS'girl'
p1326
aS'express'
p1327
aS'beer'
p1328
ag73
ag1266
aS'girl'
p1329
aS'man'
p1330
as(g1298
S'he'
p1331
tp1332
(lp1333
g1157
as(S'bead'
p1334
S'curtain.'
p1335
tp1336
(lp1337
g732
ag600
as(S'the'
p1338
g330
tp1339
(lp1340
S'and'
p1341
as(S'means'
p1342
S'anything'
p1343
tp1344
(lp1345
S'to'
p1346
as(g101
g104
tp1347
(lp1348
S'building.'
p1349
as(g59
S'we'
p1350
tp1351
(lp1352
g83
aS'could'
p1353
as(S'feel'
p1354
S'that'
p1355
tp1356
(lp1357
S'way."'
p1358
aS'way."'
p1359
as(g796
S'with'
p1360
tp1361
(lp1362
S'everything."'
p1363
as(g1238
S'want'
p1364
tp1365
(lp1366
S'them'
p1367
as(g1235
S'them'
p1368
tp1369
(lp1370
S'around'
p1371
as(S'to'
p1372
g30
tp1373
(lp1374
g31
as(S'"Let\'s'
p1375
g511
tp1376
(lp1377
g512
as(S'"I'
p1378
S"won't"
p1379
tp1380
(lp1381
S'worry'
p1382
as(S'for'
p1383
S'the'
p1384
tp1385
(lp1386
S'train'
p1387
aS'train.'
p1388
as(g1282
g1285
tp1389
(lp1390
S'man'
p1391
ag281
ag1334
aS'hills.'
p1392
ag808
aS'bead'
p1393
aS'table'
p1394
aS'hills'
p1395
ag998
aS'bags'
p1396
aS'woman,'
p1397
aS'bar'
p1398
aS'people.'
p1399
aS'table'
p1400
as(g870
g873
tp1401
(lp1402
S'realize\x97"'
p1403
aS'realize,"'
p1404
as(S'the'
p1405
g1298
tp1406
(lp1407
g1331
as(g172
g175
tp1408
(lp1409
g623
as(S'know'
p1410
S'I'
tp1411
(lp1412
g975
as(S'you'
p1413
S'all'
p1414
tp1415
(lp1416
S'the'
p1417
as(S"don't"
p1418
S'feel'
p1419
tp1420
(lp1421
S'any'
p1422
as(g640
g643
tp1423
(lp1424
g1101
as(S'an'
p1425
S'Anis'
p1426
tp1427
(lp1428
S'at'
p1429
as(g1104
S'"Then'
p1430
tp1431
(lp1432
S'what'
p1433
as(S'"Is'
p1434
S'it'
p1435
tp1436
(lp1437
S'good'
p1438
as(g712
g721
tp1439
(lp1440
S"don't"
p1441
as(g365
g1016
tp1442
(lp1443
g756
as(g1419
g1422
tp1444
(lp1445
S'way,"'
p1446
as(S'a'
g1212
tp1447
(lp1448
g78
as(S'he'
p1449
g1066
tp1450
(lp1451
g1067
as(S'I'
S'feel'
p1452
tp1453
(lp1454
S'fine."'
p1455
as(g555
g568
tp1456
(lp1457
S'the'
p1458
as(S'things'
p1459
S'and'
p1460
tp1461
(lp1462
S'try'
p1463
as(g1231
g1296
tp1464
(lp1465
g50
as(S'"I\'ll'
p1466
S'scream,"'
p1467
tp1468
(lp1469
S'the'
p1470
as(g1371
S'the'
p1471
tp1472
(lp1473
S'station'
p1474
as(g920
g923
tp1475
(lp1476
S'the'
p1477
as(S'side'
p1478
S'there'
p1479
tp1480
(lp1481
g1092
as(S'went'
p1482
S'out'
p1483
tp1484
(lp1485
S'through'
p1486
as(S'"I'
p1487
S'was'
p1488
tp1489
(lp1490
S'being'
p1491
as(g1260
g1171
tp1492
(lp1493
g1172
as(S'curtain'
p1494
S'against'
p1495
tp1496
(lp1497
S'the'
p1498
as(S"It's"
p1499
g384
tp1500
(lp1501
g385
as(S'man'
p1502
S'said.'
p1503
tp1504
(lp1505
g1375
aS'"Just'
p1506
ag747
aS'"It\'s'
p1507
ag980
as(S'thing'
p1508
S"that's"
p1509
tp1510
(lp1511
S'made'
p1512
as(S'nice'
p1513
S'and'
p1514
tp1515
(lp1516
g1030
as(g582
S"didn't"
p1517
tp1518
(lp1519
S'want'
p1520
as(g403
g437
tp1521
(lp1522
g438
as(S'back."'
p1523
S'"But'
p1524
tp1525
(lp1526
S'they'
p1527
as(S'to?"'
p1528
S'"I'
p1529
tp1530
(lp1531
S'think'
p1532
as(S'will'
p1533
g1078
tp1534
(lp1535
g1079
aS'nice'
p1536
aS'fine."'
p1537
as(g325
g328
tp1538
(lp1539
g954
as(S'at'
p1540
g182
tp1541
(lp1542
g183
as(g1435
g1438
tp1543
(lp1544
S'with'
p1545
as(g491
g969
tp1546
(lp1547
S'that'
p1548
ag299
as(g279
g171
tp1549
(lp1550
g172
as(g466
g796
tp1551
(lp1552
g1360
as(S'He'
p1553
g984
tp1554
(lp1555
g985
as(S'we'
p1556
S'make'
p1557
tp1558
(lp1559
S'it'
p1560
as(g1205
S'of'
p1561
tp1562
(lp1563
S'the'
p1564
as(S'if'
p1565
g586
tp1566
(lp1567
g1342
as(S'over'
p1568
S'to'
p1569
tp1570
(lp1571
S'the'
p1572
as(g443
g446
tp1573
(lp1574
S'two'
p1575
as(g1404
S'he'
p1576
tp1577
(lp1578
S'said,'
p1579
as(g1391
S'and'
p1580
tp1581
(lp1582
S'the'
p1583
as(g728
g731
tp1584
(lp1585
S'the'
p1586
as(S'it'
p1587
S'and'
p1588
tp1589
(lp1590
S'then'
p1591
as(S'you'
p1592
S'say'
p1593
tp1594
(lp1595
S'I'
as(S'"Doesn\'t'
p1596
S'it'
p1597
tp1598
(lp1599
g874
as(g255
S'the'
p1600
tp1601
(lp1602
S'curtain.'
p1603
ag1110
ag56
ag774
ag290
aS'bead'
p1604
as(g1446
S'the'
p1605
tp1606
(lp1607
S'girl'
p1608
as(g1106
g1109
tp1609
(lp1610
S'"We'
p1611
as(g74
g77
tp1612
(lp1613
g615
ag158
aS'looked'
p1614
aS'looked'
p1615
ag477
aS'looked'
p1616
ag400
ag675
as(S'do'
p1617
g578
tp1618
(lp1619
g579
aS'if'
p1620
aS"you'll"
p1621
aS'you'
p1622
ag1588
aS'if'
p1623
aS'if'
p1624
as(g162
S'at'
p1625
tp1626
(lp1627
S'the'
p1628
aS'the'
p1629
as(g211
g1191
tp1630
(lp1631
g1241
as(S'the'
p1632
g1266
tp1633
(lp1634
g1267
as(S'you."'
p1635
g1596
tp1636
(lp1637
g1597
as(S'love'
p1638
S'me?"'
p1639
tp1640
(lp1641
S'"I'
p1642
as(S'lovely'
p1643
S'hills,"'
p1644
tp1645
(lp1646
S'she'
p1647
as(S'girl.'
p1648
S'"That'
p1649
tp1650
(lp1651
S'the'
p1652
as(g1438
g1545
tp1653
(lp1654
S'water?"'
p1655
as(S'was'
p1656
S'the'
p1657
tp1658
(lp1659
g1056
as(g1560
g353
tp1660
(lp1661
g354
as(g410
g236
tp1662
(lp1663
g237
as(g500
S'a'
tp1664
(lp1665
g1196
as(g1315
S'could'
p1666
tp1667
(lp1668
S'not'
p1669
as(S'simple."'
p1670
S'"And'
p1671
tp1672
(lp1673
S'you'
p1674
as(S"you'll"
p1675
g689
tp1676
(lp1677
g690
as(S'more."'
p1678
S'"It\'s'
p1679
tp1680
(lp1681
S'ours."'
p1682
as(g1652
S'train'
p1683
tp1684
(lp1685
g737
aS'were'
p1686
as(g1642
S'love'
p1687
tp1688
(lp1689
S'you'
p1690
as(S'try'
p1691
S'this'
p1692
tp1693
(lp1694
g722
as(g1396
S'against'
p1695
tp1696
(lp1697
S'the'
p1698
as(S'from'
p1699
S'Barcelona'
p1700
tp1701
(lp1702
g597
as(g419
g422
tp1703
(lp1704
g764
as(g512
g515
tp1705
(lp1706
g789
as(g1007
g1010
tp1707
(lp1708
S'girl'
p1709
as(S'can'
p1710
S'have'
p1711
tp1712
(lp1713
g389
ag256
as(g1027
g95
tp1714
(lp1715
g96
as(S'come'
p1716
S'back'
p1717
tp1718
(lp1719
S'and'
p1720
as(g1491
S'amused.'
p1721
tp1722
(lp1723
S'I'
as(g237
g240
tp1724
(lp1725
S'I,"'
p1726
as(S'something'
p1727
S'for'
p1728
tp1729
(lp1730
S'me'
p1731
as(g915
S'it."'
p1732
tp1733
(lp1734
g1466
as(g611
g614
tp1735
(lp1736
S'of'
p1737
as(S'want'
p1738
g1308
tp1739
(lp1740
g1097
as(g1022
S'the'
p1741
tp1742
(lp1743
S'air'
p1744
aS'air'
p1745
as(S'operation'
p1746
g1540
tp1747
(lp1748
g182
as(S'really'
p1749
S'look'
p1750
tp1751
(lp1752
S'like'
p1753
as(S'glasses'
p1754
g929
tp1755
(lp1756
g930
aS'beer'
p1757
as(S'said'
p1758
S'into'
p1759
tp1760
(lp1761
S'the'
p1762
as(S'the'
p1763
g45
tp1764
(lp1765
g46
aS'He'
p1766
as(g1728
g1731
tp1767
(lp1768
g2
as(g1012
g1015
tp1769
(lp1770
g1459
as(g56
g59
tp1771
(lp1772
g1350
as(g614
g1737
tp1773
(lp1774
S'liquorice.'
p1775
as(g393
S'can\'t."'
p1776
tp1777
(lp1778
S'"We'
p1779
aS'"We'
p1780
as(g1039
S'things'
p1781
tp1782
(lp1783
g1533
as(g743
S'a'
tp1784
(lp1785
g1212
as(g429
g432
tp1786
(lp1787
S'me.'
p1788
as(g1185
S'I'
tp1789
(lp1790
g1140
as(g446
g1575
tp1791
(lp1792
g1754
as(g574
g577
tp1793
(lp1794
S'the'
p1795
as(S'"They\'re'
p1796
g1643
tp1797
(lp1798
g1644
as(g1527
S"haven't"
p1799
tp1800
(lp1801
g887
as(S'like'
p1802
g798
tp1803
(lp1804
g799
as(g1364
g1367
tp1805
(lp1806
S'with'
p1807
as(g1098
S'I'
tp1808
(lp1809
g1127
aS'do'
p1810
ag454
as(g1367
g1807
tp1811
(lp1812
S'water?"'
p1813
as(S'the'
p1814
g1110
tp1815
(lp1816
g1111
as(g648
g919
tp1817
(lp1818
g920
as(S'the'
p1819
g331
tp1820
(lp1821
g785
as(g1153
g1638
tp1822
(lp1823
g1639
as(g1019
g1022
tp1824
(lp1825
g1741
as(g1392
g1796
tp1826
(lp1827
g1643
as(g699
g702
tp1828
(lp1829
S'so'
p1830
as(S'think'
p1831
S'about'
p1832
tp1833
(lp1834
S'it.'
p1835
as(g827
g1372
tp1836
(lp1837
g30
as(g1111
g1114
tp1838
(lp1839
S'have'
p1840
as(g1158
g348
tp1841
(lp1842
g349
as(S'the'
p1843
g100
tp1844
(lp1845
g101
as(g609
S'put'
p1846
tp1847
(lp1848
S'the'
p1849
as(S'them'
p1850
S'down'
p1851
tp1852
(lp1853
S'on'
p1854
as(g562
g565
tp1855
(lp1856
S'"No,'
p1857
as(S'Because'
p1858
S'I'
tp1859
(lp1860
S"don't"
p1861
as(g651
g654
tp1862
(lp1863
S'be'
p1864
as(g1532
S"it's"
p1865
tp1866
(lp1867
g823
as(S'"They'
p1868
S"don't"
p1869
tp1870
(lp1871
g1749
as(g1049
g1052
tp1872
(lp1873
S'to'
p1874
as(g245
g360
tp1875
(lp1876
S'be'
p1877
as(g814
g817
tp1878
(lp1879
S'her'
p1880
as(S'we'
p1881
S'were'
p1882
tp1883
(lp1884
S'before."'
p1885
as(S'made'
p1886
S'of'
p1887
tp1888
(lp1889
g901
as(g1328
g1166
tp1890
(lp1891
g1167
as(S'"What'
p1892
S'makes'
p1893
tp1894
(lp1895
S'you'
p1896
as(g417
g151
tp1897
(lp1898
g152
as(S'see'
p1899
g1763
tp1900
(lp1901
g45
as(g1657
g1056
tp1902
(lp1903
g1057
as(g1441
g989
tp1904
(lp1905
g990
ag458
as(g822
g684
tp1906
(lp1907
g685
as(g626
S'two'
p1908
tp1909
(lp1910
S'of'
p1911
as(g577
g1795
tp1912
(lp1913
S'river,'
p1914
as(S'you'
p1915
S'mean?"'
p1916
tp1917
(lp1918
S'"I'
p1919
as(g953
g333
tp1920
(lp1921
g573
as(g308
g774
tp1922
(lp1923
g775
as(g1232
g1235
tp1924
(lp1925
g1368
as(S'curtain,'
p1926
g1886
tp1927
(lp1928
g1887
as(g1197
g1200
tp1929
(lp1930
S'the'
p1931
as(g8
g11
tp1932
(lp1933
S'"What'
p1934
ag958
as(g220
S'want'
p1935
tp1936
(lp1937
g1528
ag1308
as(S'said.'
p1938
g980
tp1939
(lp1940
g981
as(g1512
S'us'
p1941
tp1942
(lp1943
g769
as(S'this'
p1944
g1478
tp1945
(lp1946
g1479
as(g293
S'people'
p1947
tp1948
(lp1949
S'waiting'
p1950
as(S'go'
p1951
S'through'
p1952
tp1953
(lp1954
S'with'
p1955
as(S'the'
p1956
S'dry'
p1957
tp1958
(lp1959
S'side'
p1960
as(g46
g49
tp1961
(lp1962
S'he'
p1963
as(S'anything'
p1964
S'but'
p1965
tp1966
(lp1967
S'looked'
p1968
as(g1393
g661
tp1969
(lp1970
g275
as(S'should'
p1971
S'we'
p1972
tp1973
(lp1974
g592
as(g649
S'it,'
p1975
tp1976
(lp1977
S'Jig.'
p1978
as(S'hills.'
p1979
g176
tp1980
(lp1981
g177
as(S'it'
p1982
g896
tp1983
(lp1984
g897
as(g390
g393
tp1985
(lp1986
g1776
aS'can\'t."'
p1987
aS"can't."
p1988
as(g751
S'an'
p1989
tp1990
(lp1991
g1083
ag1746
as(g232
g235
tp1992
(lp1993
g1814
as(S'He'
p1994
S'picked'
p1995
tp1996
(lp1997
g221
as(g1430
g1433
tp1998
(lp1999
S'will'
p2000
as(g156
S'better?"'
p2001
tp2002
(lp2003
g1449
as(S'put'
p2004
g1850
tp2005
(lp2006
g1851
as(S'a'
g1926
tp2007
(lp2008
g1886
as(g1398
S'and'
p2009
tp2010
(lp2011
S'looked'
p2012
as(S'Then'
p2013
g1716
tp2014
(lp2015
g1717
as(g1517
g1520
tp2016
(lp2017
S'to.'
p2018
as(g752
S'really'
p2019
tp2020
(lp2021
S'an'
p2022
as(S'waiting'
p2023
g501
tp2024
(lp2025
g502
as(g1741
g1744
tp2026
(lp2027
S'in."'
p2028
aS'in'
p2029
as(g786
g215
tp2030
(lp2031
g216
as(g925
g197
tp2032
(lp2033
g198
as(g127
g130
tp2034
(lp2035
g1405
as(S'Across,'
p2036
S'on'
p2037
tp2038
(lp2039
S'the'
p2040
as(S'it'
p2041
S'say?"'
p2042
tp2043
(lp2044
S'"Anis'
p2045
as(S'had'
p2046
S'spent'
p2047
tp2048
(lp2049
S'nights.'
p2050
as(g1775
g852
tp2051
(lp2052
g853
as(g1781
g1533
tp2053
(lp2054
g1078
as(g87
g528
tp2055
(lp2056
S'she'
p2057
as(S'other'
p2058
S'tracks.'
p2059
tp2060
(lp2061
g1553
as(g2047
g2050
tp2062
(lp2063
S'"But'
p2064
as(g1629
g1395
tp2065
(lp2066
S'on'
p2067
as(g2059
g1553
tp2068
(lp2069
g984
as(g447
S'out'
p2070
tp2071
(lp2072
S'from'
p2073
ag305
as(g13
S'"Oh,'
p2074
tp2075
(lp2076
S'yes.'
p2077
as(g214
g755
tp2078
(lp2079
S'the'
p2080
as(S'it.'
p2081
g1858
tp2082
(lp2083
S'I'
as(g1399
S'They'
p2084
tp2085
(lp2086
S'were'
p2087
as(g1524
g1527
tp2088
(lp2089
g1799
as(g334
S'and'
p2090
tp2091
(lp2092
S'the'
p2093
as(g336
g964
tp2094
(lp2095
S'man'
p2096
as(g1639
g1642
tp2097
(lp2098
g1687
as(g450
g453
tp2099
(lp2100
S'stop'
p2101
as(g1079
g1082
tp2102
(lp2103
g1150
as(g423
g426
tp2104
(lp2105
S'so'
p2106
ag2023
as(g1330
S'looked'
p2107
tp2108
(lp2109
g839
as(g1832
g1835
tp2110
(lp2111
S'You'
p2112
as(g954
g957
tp2113
(lp2114
S'and'
p2115
as(g1395
g2067
tp2116
(lp2117
g1956
as(g2064
S'I'
tp2118
(lp2119
S"don't"
p2120
as(g1343
g1346
tp2121
(lp2122
g1635
aS'you?'
p2123
as(g316
g319
tp2124
(lp2125
g940
as(g928
S'right.'
p2126
tp2127
(lp2128
S'I'
ag1209
ag2013
as(g861
g864
tp2129
(lp2130
S'of'
p2131
as(S'to'
p2132
S'keep'
p2133
tp2134
(lp2135
g265
as(g1795
g1914
tp2136
(lp2137
S'were'
p2138
as(S'right.'
p2139
g2013
tp2140
(lp2141
g1716
as(g1422
g1446
tp2142
(lp2143
g1605
as(g2045
g1136
tp2144
(lp2145
g1137
as(S'and'
p2146
S'every'
p2147
tp2148
(lp2149
S'day'
p2150
as(g547
g1209
tp2151
(lp2152
g869
as(g1379
g1382
tp2153
(lp2154
g1040
as(g1141
g1144
tp2155
(lp2156
S'but'
p2157
as(g537
g1245
tp2158
(lp2159
g1246
as(g586
g1342
tp2160
(lp2161
g1343
as(g1318
g587
tp2162
(lp2163
g588
as(g1975
g1978
tp2164
(lp2165
g1499
as(g606
g609
tp2166
(lp2167
g1846
as(S'to'
p2168
S'you'
p2169
tp2170
(lp2171
S"don't"
p2172
as(g897
g900
tp2173
(lp2174
S'get'
p2175
as(g1963
S'walked'
p2176
tp2177
(lp2178
S'through'
p2179
as(S'the'
p2180
g332
tp2181
(lp2182
g2036
ag285
as(g1965
g1968
tp2183
(lp2184
S'at'
p2185
as(S'pads.'
p2186
g207
tp2187
(lp2188
g208
as(g1246
g1249
tp2189
(lp2190
g703
as(S'water?"'
p2191
S'"I'
p2192
tp2193
(lp2194
g1006
as(S'having'
p2195
S'a'
tp2196
(lp2197
g924
as(S'happy."'
p2198
S'"I'
p2199
tp2200
(lp2201
g708
as(S'girl'
p2202
g477
tp2203
(lp2204
g478
as(g971
g974
tp2205
(lp2206
S'you.'
p2207
as(g1709
S'said.'
p2208
tp2209
(lp2210
g1434
ag1487
aS'"It\'s'
p2211
aS'"I'
p2212
ag449
aS'The'
p2213
as(S'put'
p2214
g1161
tp2215
(lp2216
g1162
as(g797
S'thing'
p2217
tp2218
(lp2219
g140
ag1509
as(g177
g180
tp2220
(lp2221
S'in'
p2222
as(g1644
g1647
tp2223
(lp2224
S'said.'
p2225
as(g290
g293
tp2226
(lp2227
g1947
as(g1093
g1096
tp2228
(lp2229
g1001
as(S'valley'
p2230
g324
tp2231
(lp2232
g325
as(g1972
g592
tp2233
(lp2234
g593
as(g1131
g1622
tp2235
(lp2236
S"won't"
p2237
as(g807
S'"I'
p2238
tp2239
(lp2240
S'know'
p2241
as(g2225
g1868
tp2242
(lp2243
g1869
as(g2133
g265
tp2244
(lp2245
g266
as(g579
g582
tp2246
(lp2247
g1517
aS"don't"
p2248
ag1354
aS"don't"
p2249
as(S'between'
p2250
S'two'
p2251
tp2252
(lp2253
S'lines'
p2254
as(S'the'
p2255
g1398
tp2256
(lp2257
g2009
as(g146
g149
tp2258
(lp2259
g2139
as(g1692
g722
tp2260
(lp2261
g723
as(g565
g1857
tp2262
(lp2263
S'we'
p2264
as(g1363
g1291
tp2265
(lp2266
g1222
as(g697
S'I'
tp2267
(lp2268
S'do'
p2269
as(g1358
S'The'
p2270
tp2271
(lp2272
g399
as(g702
g1830
tp2273
(lp2274
S'long'
p2275
as(S'another'
p2276
g361
tp2277
(lp2278
g362
as(g1156
g1994
tp2279
(lp2280
g1995
as(S'to'
p2281
g493
tp2282
(lp2283
S'that,'
p2284
as(S'the'
p2285
g1502
tp2286
(lp2287
g1503
ag1758
ag1580
aS'drank'
p2288
aS'said.'
p2289
ag746
aS'said.'
p2290
ag765
ag2107
ag1938
as(g688
S'minutes'
p2291
tp2292
(lp2293
S'and'
p2294
as(g1181
g655
tp2295
(lp2296
S'you'
p2297
as(g1219
g813
tp2298
(lp2299
g814
as(g655
g2297
tp2300
(lp2301
g2281
as(g930
g933
tp2302
(lp2303
S'two'
p2304
ag2004
as(g345
g1304
tp2305
(lp2306
g1305
as(g1144
g2157
tp2307
(lp2308
S'I'
as(g995
g506
tp2309
(lp2310
g507
as(g1679
g1682
tp2311
(lp2312
S'"No,'
p2313
as(S'liquorice,"'
p2314
S'the'
p2315
tp2316
(lp2317
S'girl'
p2318
as(g1896
S'think'
p2319
tp2320
(lp2321
S'so?"'
p2322
ag664
as(S'the'
p2323
S'woman.'
p2324
tp2325
(lp2326
S'"Yes,'
p2327
as(g1109
g1611
tp2328
(lp2329
S'want'
p2330
as(g2074
g2077
tp2331
(lp2332
S'But'
p2333
as(g1057
g1060
tp2334
(lp2335
g1338
aS'a'
as(g1335
g732
tp2336
(lp2337
g25
as(g1349
S'It'
p2338
tp2339
(lp2340
g1271
as(g957
g2115
tp2341
(lp2342
S'white.'
p2343
as(S"doesn't"
p2344
S'prove'
p2345
tp2346
(lp2347
S'anything."'
p2348
as(g188
g191
tp2349
(lp2350
S'you'
p2351
as(S'with'
p2352
g2191
tp2353
(lp2354
g2192
ag1176
aS'asked'
p2355
as(g1433
g2000
tp2356
(lp2357
g1075
as(g750
S'the'
p2358
tp2359
(lp2360
S'girl'
p2361
as(S'worry?"'
p2362
g1378
tp2363
(lp2364
g1379
as(g1325
S'was'
p2365
tp2366
(lp2367
g2250
as(S'meant'
p2368
S'the'
p2369
tp2370
(lp2371
g227
as(g2131
g34
tp2372
(lp2373
g35
ag1088
as(g1509
g1512
tp2374
(lp2375
g1941
as(g427
g1153
tp2376
(lp2377
g1638
ag689
as(g1114
g1840
tp2378
(lp2379
g2276
aS'another'
p2380
as(g1137
g342
tp2381
(lp2382
S'a'
as(S'the'
p2383
S'glass'
p2384
tp2385
(lp2386
g462
as(g1091
S'the'
p2387
tp2388
(lp2389
S'river'
p2390
as(S'bags'
p2391
g1568
tp2392
(lp2393
g1569
as(S'sat'
p2394
g433
tp2395
(lp2396
S'a'
as(g569
g572
tp2397
(lp2398
g1232
as(g1417
g867
tp2399
(lp2400
S'They'
p2401
as(S'"The'
p2402
S"beer's"
p2403
tp2404
(lp2405
g1513
as(g478
g481
tp2406
(lp2407
S'anything.'
p2408
ag1964
as(g2365
g2250
tp2409
(lp2410
g2251
as(S'him'
p2411
g2394
tp2412
(lp2413
g433
as(g2077
g2333
tp2414
(lp2415
S'I'
as(g1666
g1669
tp2416
(lp2417
g1899
as(g2207
S'I'
tp2418
(lp2419
S"don't"
p2420
as(S'does'
p2421
g2041
tp2422
(lp2423
g2042
as(g333
g573
tp2424
(lp2425
g574
as(g793
g1758
tp2426
(lp2427
g1759
as(g1683
g737
tp2428
(lp2429
g738
as(g202
g205
tp2430
(lp2431
S'perfectly'
p2432
aS'perfectly'
p2433
aS'perfectly'
p2434
as(g2355
g2323
tp2435
(lp2436
g2324
ag1648
as(g2157
S'I'
tp2437
(lp2438
S'just'
p2439
ag1045
as(S'Could'
p2440
S'we'
p2441
tp2442
(lp2443
S'have'
p2444
as(g2319
g2322
tp2445
(lp2446
S'"That\'s'
p2447
as(S'and'
p2448
g2214
tp2449
(lp2450
g1161
ag2383
ag1850
as(S'of'
p2451
g1227
tp2452
(lp2453
g1228
as(g1717
g1720
tp2454
(lp2455
g1145
as(S'the'
p2456
g857
tp2457
(lp2458
g110
as(g622
g13
tp2459
(lp2460
g2074
as(g2275
S'for,'
p2461
tp2462
(lp2463
g1802
as(S'take'
p2464
S'the'
p2465
tp2466
(lp2467
g2391
as(g1874
g1951
tp2468
(lp2469
g1952
as(S'know.'
p2470
g483
tp2471
(lp2472
g484
as(g824
g827
tp2473
(lp2474
g1372
as(g840
g843
tp2475
(lp2476
S'at'
p2477
as(g1861
g7
tp2478
(lp2479
g8
aS'about'
p2480
aS'about'
p2481
ag912
as(g1726
S'said'
p2482
tp2483
(lp2484
S'the'
p2485
as(g704
g707
tp2486
(lp2487
S'wanted'
p2488
as(g969
g1548
tp2489
(lp2490
S'you'
p2491
as(S'have'
p2492
g2344
tp2493
(lp2494
g2345
as(g2439
S"can't"
p2495
tp2496
(lp2497
g1831
as(g329
S'there'
p2498
tp2499
(lp2500
g1656
as(g82
g40
tp2501
(lp2502
g41
as(g2304
g605
tp2503
(lp2504
g606
as(g1810
g241
tp2505
(lp2506
g242
as(g1275
S'and'
p2507
tp2508
(lp2509
S'the'
p2510
as(g1720
g1145
tp2511
(lp2512
g1146
as(S'man'
p2513
g251
tp2514
(lp2515
g252
as(g2387
g2390
tp2516
(lp2517
S'through'
p2518
as(S'you'
p2519
g1617
tp2520
(lp2521
g578
ag1727
as(g1788
S'I'
tp2522
(lp2523
g1452
as(S'like'
p2524
g1881
tp2525
(lp2526
g1882
as(g284
g1979
tp2527
(lp2528
g176
as(g96
g99
tp2529
(lp2530
g127
as(g271
g274
tp2531
(lp2532
S'girl'
p2533
as(S'woman'
p2534
g447
tp2535
(lp2536
g2070
ag304
as(g1130
g1621
tp2537
(lp2538
g1035
as(S"I've"
p2539
S'known'
p2540
tp2541
(lp2542
g521
as(g1101
g1104
tp2543
(lp2544
g1430
as(g1267
g1270
tp2545
(lp2546
S'and'
p2547
as(g1474
S'to'
p2548
tp2549
(lp2550
S'the'
p2551
as(g623
g626
tp2552
(lp2553
g1908
as(g1978
g1499
tp2554
(lp2555
g384
as(S'know.'
p2556
g2440
tp2557
(lp2558
g2441
as(S'open'
p2559
g337
tp2560
(lp2561
g338
as(g1682
g2313
tp2562
(lp2563
S'it'
p2564
as(g1622
g2237
tp2565
(lp2566
S'ever'
p2567
as(S'the'
p2568
g797
tp2569
(lp2570
g2217
ag1508
as(S'does.'
p2571
S'But'
p2572
tp2573
(lp2574
S'I'
as(g1165
S'table.'
p2575
tp2576
(lp2577
S'"It\'s'
p2578
ag2402
ag669
as(g1690
S'now.'
p2579
tp2580
(lp2581
S'You'
p2582
as(g104
g1349
tp2583
(lp2584
g2338
as(g1506
S'because'
p2585
tp2586
(lp2587
g1592
as(g851
g2464
tp2588
(lp2589
g2465
as(g1272
g1275
tp2590
(lp2591
g2507
as(g398
g718
tp2592
(lp2593
S'the'
p2594
as(g49
g1963
tp2595
(lp2596
g2176
as(S'white'
p2597
S'elephants,"'
p2598
tp2599
(lp2600
S'she'
p2601
as(g1597
g874
tp2602
(lp2603
g875
as(g1669
g1899
tp2604
(lp2605
g1763
as(S'five'
p2606
g1244
tp2607
(lp2608
S'The'
p2609
as(g2115
g2343
tp2610
(lp2611
S'On'
p2612
as(S'seen'
p2613
S'one,"'
p2614
tp2615
(lp2616
S'the'
p2617
as(S'have'
p2618
g256
tp2619
(lp2620
g257
as(S'sat'
p2621
g310
tp2622
(lp2623
g311
as(g1846
g1849
tp2624
(lp2625
S'felt'
p2626
ag2384
as(g180
g2222
tp2627
(lp2628
S'the'
p2629
as(S'"What'
p2630
g2421
tp2631
(lp2632
g2041
as(g1397
g15
tp2633
(lp2634
g16
as(S'simple."'
p2635
S'"Yes,'
p2636
tp2637
(lp2638
S'you'
p2639
as(g338
g341
tp2640
(lp2641
S'bar,'
p2642
ag1023
as(g441
g715
tp2643
(lp2644
S'end'
p2645
ag294
ag2058
as(g1799
g887
tp2646
(lp2647
g888
as(g300
g303
tp2648
(lp2649
S'you'
p2650
as(g1988
S'It'
p2651
tp2652
(lp2653
g548
as(S'have'
p2654
g458
tp2655
(lp2656
S'I'
as(g155
S'it'
p2657
tp2658
(lp2659
g2352
as(S'go'
p2660
S'with'
p2661
tp2662
(lp2663
g1259
as(g596
g1218
tp2664
(lp2665
g1219
as(S'with'
p2666
S'water."'
p2667
tp2668
(lp2669
S'"It'
p2670
as(g1766
g1482
tp2671
(lp2672
g1483
as(S'the'
p2673
g1105
tp2674
(lp2675
g1106
as(g240
g1726
tp2676
(lp2677
g2482
as(g2237
g2567
tp2678
(lp2679
g2362
as(S'it,"'
p2680
S'the'
p2681
tp2682
(lp2683
S'girl'
p2684
as(g1947
g1950
tp2685
(lp2686
g1383
as(g1593
S'I'
tp2687
(lp2688
S"wouldn't"
p2689
as(g2106
g418
tp2690
(lp2691
g419
as(g1893
g1896
tp2692
(lp2693
g2319
as(g520
g2524
tp2694
(lp2695
g1881
as(g1208
S'we'
p2696
tp2697
(lp2698
S'do,'
p2699
as(g1935
g1528
tp2700
(lp2701
g1529
as(S'drank'
p2702
g1425
tp2703
(lp2704
g1426
as(g139
g2571
tp2705
(lp2706
g2572
as(g2343
g2612
tp2707
(lp2708
g1944
as(S'like'
p2709
g2314
tp2710
(lp2711
g2315
as(g2175
S'it'
p2712
tp2713
(lp2714
g1523
as(g782
S'I'
tp2715
(lp2716
S'said'
p2717
as(g2147
g2150
tp2718
(lp2719
g1556
as(S'"What'
p2720
g1971
tp2721
(lp2722
g1972
as(S'just'
p2723
S'let'
p2724
tp2725
(lp2726
S'the'
p2727
as(g804
g807
tp2728
(lp2729
g2238
as(g201
S'and'
p2730
tp2731
(lp2732
S'have'
p2733
as(g941
g818
tp2734
(lp2735
g819
as(S'never'
p2736
g2613
tp2737
(lp2738
g2614
as(g1467
g1470
tp2739
(lp2740
S'girl'
p2741
as(g2733
S'a'
tp2742
(lp2743
S'fine'
p2744
as(g1865
g823
tp2745
(lp2746
g824
as(S'do'
p2747
g1727
tp2748
(lp2749
g1728
as(g1297
S'and'
p2750
tp2751
(lp2752
g1632
as(S'said.'
p2753
g2213
tp2754
(lp2755
S'woman'
p2756
as(g1289
g1396
tp2757
(lp2758
g1695
ag1568
as(g88
g2146
tp2759
(lp2760
g2147
as(g2327
g2666
tp2761
(lp2762
g2667
as(g457
S'are'
p2763
tp2764
(lp2765
S'like'
p2766
as(g1737
g1775
tp2767
(lp2768
g852
as(g1655
g1176
tp2769
(lp2770
g1177
as(S'I'
g2689
tp2771
(lp2772
g2492
aS'have'
p2773
as(g2042
g2045
tp2774
(lp2775
g1136
as(g2699
g1011
tp2776
(lp2777
g1012
as(g1687
g1690
tp2778
(lp2779
g2579
as(g357
S'did'
p2780
tp2781
(lp2782
S'you'
p2783
ag395
as(g205
g2432
tp2784
(lp2785
g1670
ag906
ag2635
ag656
as(S'curtain.'
p2786
g600
tp2787
(lp2788
g601
as(g1869
g1749
tp2789
(lp2790
g1750
ag1738
as(S'I'
g115
tp2791
(lp2792
g116
as(g517
g520
tp2793
(lp2794
g2524
as(S'"that'
p2795
S'I'
tp2796
(lp2797
S"don't"
p2798
as(g601
g604
tp2799
(lp2800
S'at'
p2801
as(g1536
g320
tp2802
(lp2803
g321
as(g528
g2057
tp2804
(lp2805
g529
as(S'look'
p2806
S'like'
p2807
tp2808
(lp2809
g2597
aS'white'
p2810
as(g802
S'it'
p2811
tp2812
(lp2813
g472
as(g54
g1203
tp2814
(lp2815
S'of'
p2816
as(g2667
g2670
tp2817
(lp2818
S'tastes'
p2819
as(g864
g2131
tp2820
(lp2821
g34
as(g1172
g1175
tp2822
(lp2823
g1413
as(S'talking?"'
p2824
S'They'
p2825
tp2826
(lp2827
g2621
as(g799
g802
tp2828
(lp2829
g2811
as(g1244
g2609
tp2830
(lp2831
g674
as(g1529
g1532
tp2832
(lp2833
g1865
as(g2322
g2447
tp2834
(lp2835
g2568
as(g2384
g462
tp2836
(lp2837
g463
as(S'And'
p2838
S'I'
tp2839
(lp2840
S'know'
p2841
as(g1322
g1325
tp2842
(lp2843
g2365
ag2498
ag2548
as(S'a'
g1196
tp2844
(lp2845
g1197
as(g2670
g2819
tp2846
(lp2847
g2709
as(S'pads'
p2848
S'and'
p2849
tp2850
(lp2851
S'the'
p2852
as(g2582
g1410
tp2853
(lp2854
S'I'
ag70
as(S'And'
p2855
S"I'll"
p2856
tp2857
(lp2858
S'do'
p2859
as(S'afraid.'
p2860
g2539
tp2861
(lp2862
g2540
as(g2540
g521
tp2863
(lp2864
g522
as(g680
g683
tp2865
(lp2866
g1061
as(g1611
g2330
tp2867
(lp2868
S'two'
p2869
as(g1507
g752
tp2870
(lp2871
g2019
as(g2001
g1449
tp2872
(lp2873
g1066
as(g2318
S'said'
p2874
tp2875
(lp2876
S'and'
p2877
as(g591
g2559
tp2878
(lp2879
g337
as(g1887
g901
tp2880
(lp2881
g902
as(g604
g2801
tp2882
(lp2883
S'the'
p2884
as(g426
g2106
tp2885
(lp2886
g418
as(g2288
g379
tp2887
(lp2888
g380
as(S'hat'
p2889
g2448
tp2890
(lp2891
g2214
as(S'to'
p2892
g1691
tp2893
(lp2894
g1692
as(g1368
g1371
tp2895
(lp2896
g1471
as(S'him.'
p2897
g150
tp2898
(lp2899
S'you'
p2900
as(g1286
g1334
tp2901
(lp2902
g1335
ag1494
ag661
ag2786
as(g1579
g2795
tp2903
(lp2904
S'I'
as(g1327
g1699
tp2905
(lp2906
g1700
as(S'to'
p2907
S'do\x97"'
p2908
tp2909
(lp2910
S'"Nor'
p2911
as(g1458
g1326
tp2912
(lp2913
S'with'
p2914
ag1218
ag2208
ag2874
aS'said.'
p2915
aS'said.'
p2916
aS'said.'
p2917
aS'said.'
p2918
aS'looked'
p2919
ag2753
as(g2070
g2073
tp2920
(lp2921
g2673
as(g1149
g1156
tp2922
(lp2923
g1994
as(g2150
g1556
tp2924
(lp2925
g1557
as(g1614
g162
tp2926
(lp2927
g1625
aS'at'
p2928
as(g2000
g1075
tp2929
(lp2930
g1070
as(g1830
g2275
tp2931
(lp2932
g2461
as(g400
g403
tp2933
(lp2934
g437
as(g1015
g1459
tp2935
(lp2936
g1460
as(g191
g2351
tp2937
(lp2938
g2747
ag879
as(g685
g688
tp2939
(lp2940
g2291
as(S'they'
p2941
g2046
tp2942
(lp2943
g2047
as(g2211
g751
tp2944
(lp2945
g1989
as(g2811
g472
tp2946
(lp2947
g473
as(g1258
g1982
tp2948
(lp2949
g896
as(g760
S'the'
p2950
tp2951
(lp2952
S'bead'
p2953
as(g1355
g1358
tp2954
(lp2955
g2270
aS'"I'
p2956
as(g2123
g916
tp2957
(lp2958
g192
as(S'I'
g2717
tp2959
(lp2960
g2456
as(g1052
g1874
tp2961
(lp2962
g1951
as(S'dry.'
p2963
S'"They'
p2964
tp2965
(lp2966
g2806
as(g2481
g14
tp2967
(lp2968
g2855
as(g408
g1537
tp2969
(lp2970
S'"I'
p2971
as(g1628
g1392
tp2972
(lp2973
g1796
as(S'that'
p2974
g631
tp2975
(lp2976
g632
as(g2192
g1006
tp2977
(lp2978
g1007
aS'care'
p2979
aS'want'
p2980
ag1419
aS'want'
p2981
ag911
as(S'just'
p2982
S'know'
p2983
tp2984
(lp2985
S'things."'
p2986
as(g868
S'where'
p2987
tp2988
(lp2989
g2941
as(g2291
g2294
tp2990
(lp2991
g831
as(g1603
S'The'
p2992
tp2993
(lp2994
g2534
as(S'do'
p2995
g2081
tp2996
(lp2997
g1858
as(g707
g2488
tp2998
(lp2999
g2892
as(g1036
g1039
tp3000
(lp3001
g1781
as(g2908
g2911
tp3002
(lp3003
g2974
as(g493
g2284
tp3004
(lp3005
S'but'
p3006
as(g2578
S'pretty'
p3007
tp3008
(lp3009
S'hot,"'
p3010
as(g1300
g1303
tp3011
(lp3012
g2186
as(S'field'
p3013
S'of'
p3014
tp3015
(lp3016
S'grain'
p3017
as(g945
g948
tp3018
(lp3019
g1675
as(g2986
S'"I'
p3020
tp3021
(lp3022
S"don't"
p3023
as(S'have'
p3024
g88
tp3025
(lp3026
g2146
as(g2645
S'of'
p3027
tp3028
(lp3029
g2180
as(g1916
g1919
tp3030
(lp3031
S"don't"
p3032
as(g1132
g1135
tp3033
(lp3034
g2838
as(g812
g803
tp3035
(lp3036
g804
as(g847
g442
tp3037
(lp3038
g443
as(g848
g851
tp3039
(lp3040
g2464
as(g1583
g73
tp3041
(lp3042
g74
ag611
ag260
ag1649
as(g721
g1441
tp3043
(lp3044
g989
as(S'"I\'ll'
p3045
g2660
tp3046
(lp3047
g2661
as(g2626
g2848
tp3048
(lp3049
g2849
as(g2101
g2824
tp3050
(lp3051
g2825
ag467
as(S'me,"'
p3052
S'she'
p3053
tp3054
(lp3055
S'said.'
p3056
as(g1170
S'table'
p3057
tp3058
(lp3059
S'and'
p3060
ag803
aS'and'
p3061
aS'and'
p3062
as(g715
g2645
tp3063
(lp3064
g3027
as(g380
g383
tp3065
(lp3066
g644
as(g1686
S'drinking.'
p3067
tp3068
(lp3069
S'He'
p3070
as(g14
g2855
tp3071
(lp3072
g2856
as(g976
g979
tp3073
(lp3074
g2470
as(g354
g357
tp3075
(lp3076
g2780
as(g2598
g2601
tp3077
(lp3078
S'said.'
p3079
as(S'was'
p3080
g2195
tp3081
(lp3082
S'a'
as(g286
g90
tp3083
(lp3084
g91
as(g2987
g2941
tp3085
(lp3086
g2046
as(g152
g155
tp3087
(lp3088
g2657
as(S"wouldn't"
p3089
g649
tp3090
(lp3091
g1975
as(g2614
g2617
tp3092
(lp3093
S'man'
p3094
as(g1851
g1854
tp3095
(lp3096
g1299
as(g219
g664
tp3097
(lp3098
g665
as(g2657
g2352
tp3099
(lp3100
g2191
as(g1840
g2276
tp3101
(lp3102
g361
ag543
as(g1934
S'do'
p3103
tp3104
(lp3105
g1915
as(g923
g1477
tp3106
(lp3107
S'man'
p3108
as(g1135
g2838
tp3109
(lp3110
S'I'
as(g2689
g2492
tp3111
(lp3112
g2344
ag2519
as(g2254
g2451
tp3113
(lp3114
g1227
as(g2018
g246
tp3115
(lp3116
S'I'
as(g453
g2101
tp3117
(lp3118
g2824
as(g2403
g1513
tp3119
(lp3120
g1514
as(g2639
S'know'
p3121
tp3122
(lp3123
S"it's"
p3124
as(g330
g1341
tp3125
(lp3126
S'a'
as(g1296
g50
tp3127
(lp3128
g51
as(g1548
g2491
tp3129
(lp3130
S"don't"
p3131
as(g2330
g2869
tp3132
(lp3133
S'Anis'
p3134
as(g3062
S'smiled'
p3135
tp3136
(lp3137
S'at'
p3138
as(S'a'
g436
tp3139
(lp3140
S'in'
p3141
as(g3094
g2288
tp3142
(lp3143
g379
as(g2773
g2519
tp3144
(lp3145
g1617
as(g1591
g404
tp3146
(lp3147
g405
as(g1084
g1087
tp3148
(lp3149
g369
as(g2289
g1506
tp3150
(lp3151
g2585
as(g2488
g2892
tp3152
(lp3153
g1691
as(g1067
g836
tp3154
(lp3155
g20
as(g26
g29
tp3156
(lp3157
g131
as(g1096
g1001
tp3158
(lp3159
g1002
as(g1744
g2028
tp3160
(lp3161
S'The'
p3162
as(g2579
g2582
tp3163
(lp3164
g1410
as(g2212
g2982
tp3165
(lp3166
g2983
as(g2730
g2733
tp3167
(lp3168
S'a'
as(g1346
g1635
tp3169
(lp3170
g1596
as(g1882
g1885
tp3171
(lp3172
g1892
as(g683
g1061
tp3173
(lp3174
g1062
as(g2264
g1988
tp3175
(lp3176
g2651
as(g1180
g1238
tp3177
(lp3178
g1364
as(g2911
g2974
tp3179
(lp3180
g631
as(g341
g2642
tp3181
(lp3182
g2132
as(g2401
g2723
tp3183
(lp3184
g2724
as(g747
g750
tp3185
(lp3186
g2358
as(g856
g698
tp3187
(lp3188
g699
as(g2080
g868
tp3189
(lp3190
g2987
as(g2612
g1944
tp3191
(lp3192
g1478
as(g106
g109
tp3193
(lp3194
g2513
as(g673
g1404
tp3195
(lp3196
g1576
as(S'you'
p3197
S"don't"
p3198
tp3199
(lp3200
S'want'
p3201
ag2654
aS'really'
p3202
aS'want'
p3203
aS'want'
p3204
as(g844
g847
tp3205
(lp3206
g442
as(g638
g937
tp3207
(lp3208
g1019
as(g116
S'I'
tp3209
(lp3210
g694
as(g1192
g1195
tp3211
(lp3212
S'only'
p3213
as(g2642
g2132
tp3214
(lp3215
g2133
as(g2251
g2254
tp3216
(lp3217
g2451
as(g198
g201
tp3218
(lp3219
g2730
as(g1586
g2230
tp3220
(lp3221
g324
ag2090
as(g979
g2470
tp3222
(lp3223
g483
ag2440
as(g181
g2023
tp3224
(lp3225
g501
as(g2138
S'mountains.'
p3226
tp3227
(lp3228
g496
as(g2825
g2621
tp3229
(lp3230
g310
as(g560
g467
tp3231
(lp3232
g468
as(g109
g2513
tp3233
(lp3234
g251
as(g38
g1188
tp3235
(lp3236
g1263
as(g2807
g2597
tp3237
(lp3238
g2598
ag534
aS'elephants.'
p3239
ag945
as(g1557
g1560
tp3240
(lp3241
g353
as(g2915
g1487
tp3242
(lp3243
g1488
ag2982
ag2556
as(g2763
g2766
tp3244
(lp3245
g944
as(g678
S'at'
p3246
tp3247
(lp3248
S'the'
p3249
as(g540
g2630
tp3250
(lp3251
g2421
ag394
as(g2390
g2518
tp3252
(lp3253
g55
as(g1745
g2029
tp3254
(lp3255
g1115
as(g2380
g543
tp3256
(lp3257
g544
as(g368
g299
tp3258
(lp3259
g300
as(g1255
S'"I'
p3260
tp3261
(lp3262
S"don't"
p3263
as(g2783
g994
tp3264
(lp3265
g995
as(g2495
g1831
tp3266
(lp3267
g1832
as(g2953
g1494
tp3268
(lp3269
g1495
as(g2050
g2064
tp3270
(lp3271
S'I'
as(g2338
g1271
tp3272
(lp3273
g1272
as(g867
g2401
tp3274
(lp3275
g2723
as(g1950
g1383
tp3276
(lp3277
g1384
as(g454
g457
tp3278
(lp3279
g2763
as(g2918
g449
tp3280
(lp3281
g450
as(g1721
S'I'
tp3282
(lp3283
g3080
as(g41
g44
tp3284
(lp3285
g844
as(g3067
g3070
tp3286
(lp3287
g2702
as(g835
g2720
tp3288
(lp3289
g1971
as(g2780
g2783
tp3290
(lp3291
g994
as(g2022
g1746
tp3292
(lp3293
g1540
as(g16
g19
tp3294
(lp3295
g848
as(g1576
g1579
tp3296
(lp3297
g2795
ag3260
as(g668
g650
tp3298
(lp3299
g651
as(S'time."'
p3300
g928
tp3301
(lp3302
g2126
as(g1835
g2112
tp3303
(lp3304
g69
as(g2217
g140
tp3305
(lp3306
g141
as(g2369
g227
tp3307
(lp3308
g228
as(g1914
g2138
tp3309
(lp3310
g3226
as(g1350
g83
tp3311
(lp3312
g84
ag3024
ag627
as(g2348
S'The'
p3313
tp3314
(lp3315
g157
as(g1952
g1955
tp3316
(lp3317
S'it'
p3318
as(g1849
g2626
tp3319
(lp3320
g2848
as(g2869
g3134
tp3321
(lp3322
S'del'
p3323
as(g1203
g2816
tp3324
(lp3325
S'the'
p3326
aS'the'
p3327
ag961
as(S'a'
g345
tp3328
(lp3329
g1304
as(g675
g678
tp3330
(lp3331
g3246
as(g1062
g1065
tp3332
(lp3333
S'girl'
p3334
as(g731
g1586
tp3335
(lp3336
g2230
ag2559
ag3013
as(g3239
S'I'
tp3337
(lp3338
S'just'
p3339
as(g1621
g1035
tp3340
(lp3341
g1036
as(g1388
g1766
tp3342
(lp3343
g1482
as(g1263
g949
tp3344
(lp3345
g950
as(g2176
g2179
tp3346
(lp3347
g289
as(g2313
g2564
tp3348
(lp3349
S"isn't."
p3350
as(g2564
g3350
tp3351
(lp3352
g374
as(g2819
g2709
tp3353
(lp3354
g2314
as(g912
g915
tp3355
(lp3356
g1732
as(g1326
g2914
tp3357
(lp3358
g2411
as(g1864
g2198
tp3359
(lp3360
g2199
as(g3350
g374
tp3361
(lp3362
g375
as(g1762
g1023
tp3363
(lp3364
g742
ag2992
as(g2636
g2639
tp3365
(lp3366
g3121
as(g888
g891
tp3367
(lp3368
S'"We\'ll'
p3369
as(g1941
g769
tp3370
(lp3371
g770
as(g892
g895
tp3372
(lp3373
g280
as(g1885
g1892
tp3374
(lp3375
g1893
as(g2408
g3045
tp3376
(lp3377
g2660
as(g1359
g2956
tp3378
(lp3379
g1418
as(S'you'
p3380
g126
tp3381
(lp3382
g1252
as(g2852
g1328
tp3383
(lp3384
g1166
as(g2567
g2362
tp3385
(lp3386
g1378
as(g2696
g2699
tp3387
(lp3388
g1011
as(g473
g476
tp3389
(lp3390
g2680
as(g1514
g1030
tp3391
(lp3392
g1031
as(g1074
S'be'
p3393
tp3394
(lp3395
g516
as(g1700
g597
tp3396
(lp3397
g315
as(g2964
g2806
tp3398
(lp3399
g2807
as(g1071
g1074
tp3400
(lp3401
g3393
as(g2461
g1802
tp3402
(lp3403
g798
as(g2029
g1115
tp3404
(lp3405
g639
as(g878
g2123
tp3406
(lp3407
g916
as(g1957
g1960
tp3408
(lp3409
S'of'
p3410
as(g2650
g879
tp3411
(lp3412
g880
as(S'a'
g924
tp3413
(lp3414
g925
ag3300
as(g1520
g2018
tp3415
(lp3416
g246
ag1048
as(g252
g255
tp3417
(lp3418
g1600
as(g632
g635
tp3419
(lp3420
g3052
as(g615
g618
tp3421
(lp3422
g892
as(g2914
g2411
tp3423
(lp3424
g2394
as(g383
g644
tp3425
(lp3426
g645
as(g3339
g2368
tp3427
(lp3428
g2369
as(g819
g822
tp3429
(lp3430
g684
as(g2712
g1523
tp3431
(lp3432
g1524
as(g2345
g2348
tp3433
(lp3434
g3313
as(g2126
S'I'
tp3435
(lp3436
g781
as(g1732
g1466
tp3437
(lp3438
g1467
as(g1204
g2402
tp3439
(lp3440
g2403
as(g552
g1678
tp3441
(lp3442
g1679
as(g2651
g548
tp3443
(lp3444
g549
as(g2028
g3162
tp3445
(lp3446
g2202
as(g763
g409
tp3447
(lp3448
g410
as(g276
g279
tp3449
(lp3450
g171
as(g3198
g3201
tp3451
(lp3452
g2168
ag119
aS'you'
p3453
aS'you'
p3454
ag2907
aS'you'
p3455
ag1053
ag971
ag1132
ag3380
as(g832
g835
tp3456
(lp3457
g2720
as(g1249
g703
tp3458
(lp3459
g704
as(g654
g1864
tp3460
(lp3461
g2198
as(g1305
g105
tp3462
(lp3463
g106
as(g11
g1934
tp3464
(lp3465
g3103
as(g690
g693
tp3466
(lp3467
g1182
as(g2874
g2877
tp3468
(lp3469
S'put'
p3470
as(g332
g2036
tp3471
(lp3472
g2037
as(g1387
g1686
tp3473
(lp3474
g3067
as(g645
g648
tp3475
(lp3476
g919
as(g281
g284
tp3477
(lp3478
g1979
as(g1488
g1491
tp3479
(lp3480
g1721
as(g3057
g3060
tp3481
(lp3482
g1281
aS'the'
p3483
ag3135
as(g1460
g1463
tp3484
(lp3485
g679
as(g2510
g1327
tp3486
(lp3487
g1699
as(g1087
g369
tp3488
(lp3489
g370
as(g2661
g1259
tp3490
(lp3491
g1260
ag1414
as(S'"I\'ve'
p3492
g2736
tp3493
(lp3494
g2613
as(g1575
g1754
tp3495
(lp3496
g929
aS'of'
p3497
as(g1989
g1083
tp3498
(lp3499
g1084
as(S'I'
g975
tp3500
(lp3501
g976
ag1141
as(g3249
g1397
tp3502
(lp3503
g15
as(g1731
g2
tp3504
(lp3505
g3
as(g1931
g3013
tp3506
(lp3507
g3014
as(g900
g2175
tp3508
(lp3509
g2712
as(g1331
g1157
tp3510
(lp3511
g1158
as(g3070
g2702
tp3512
(lp3513
g1425
as(g891
g3369
tp3514
(lp3515
g1026
as(g2629
g1297
tp3516
(lp3517
g2750
as(g1287
g808
tp3518
(lp3519
g809
as(g1005
g1321
tp3520
(lp3521
g1322
as(g3323
g413
tp3522
(lp3523
g414
as(g226
g1315
tp3524
(lp3525
g1666
as(g1674
g220
tp3526
(lp3527
g1935
as(g817
g1880
tp3528
(lp3529
g2889
as(g3010
g2285
tp3530
(lp3531
g1502
as(g2284
g3006
tp3532
(lp3533
S'I'
as(g3201
g2168
tp3534
(lp3535
g2169
ag2908
as(g843
g2477
tp3536
(lp3537
S'the'
p3538
as(g534
g537
tp3539
(lp3540
g1245
as(g482
g1964
tp3541
(lp3542
g1965
as(g1649
g1652
tp3543
(lp3544
g1683
as(S'I'
g3339
tp3545
(lp3546
g2368
ag2495
as(g1503
g1375
tp3547
(lp3548
g511
as(g1044
S"it's"
p3549
tp3550
(lp3551
S'perfectly'
p3552
as(g910
g2995
tp3553
(lp3554
g2081
ag1587
as(g39
g1091
tp3555
(lp3556
g2387
as(g1908
g1911
tp3557
(lp3558
g1819
as(g2294
g831
tp3559
(lp3560
g832
as(g141
g144
tp3561
(lp3562
g1192
as(g1382
g1040
tp3563
(lp3564
g1041
as(g1479
g1092
tp3565
(lp3566
g1093
ag1657
as(g765
g768
tp3567
(lp3568
g3197
as(g905
g1318
tp3569
(lp3570
g587
as(g1698
g1205
tp3571
(lp3572
g1561
as(g1270
g2547
tp3573
(lp3574
g2963
as(g2983
g2986
tp3575
(lp3576
g3020
as(g3079
g3492
tp3577
(lp3578
g2736
as(g436
g3141
tp3579
(lp3580
g1843
as(g2324
g2327
tp3581
(lp3582
g2666
as(g1002
g1005
tp3583
(lp3584
g1321
as(g2241
S'you'
p3585
tp3586
(lp3587
g3089
as(g1537
g2971
tp3588
(lp3589
S"don't"
p3590
as(g3103
g1915
tp3591
(lp3592
g1916
as(g873
g1403
tp3593
(lp3594
g270
as(g3007
g3010
tp3595
(lp3596
g2285
as(g990
g993
tp3597
(lp3598
g2860
as(g2208
g1434
tp3599
(lp3600
g1435
as(g2601
g3079
tp3601
(lp3602
g3492
ag2630
ag1868
ag530
aS'"I'
p3603
aS'"What'
p3604
ag828
as(g3369
g1026
tp3605
(lp3606
g1027
as(g974
g2207
tp3607
(lp3608
S'I'
as(g3060
g1281
tp3609
(lp3610
g1282
aS'at'
p3611
as(g335
g285
tp3612
(lp3613
g286
as(g738
g741
tp3614
(lp3615
g2606
as(g726
g1208
tp3616
(lp3617
g2696
as(g1290
g1399
tp3618
(lp3619
g2084
as(g1463
g679
tp3620
(lp3621
g680
as(g3226
g496
tp3622
(lp3623
g497
as(g2585
g1592
tp3624
(lp3625
g1593
as(g362
g365
tp3626
(lp3627
g1016
as(g1776
g1779
tp3628
(lp3629
S'can'
p3630
ag561
as(g1813
g2355
tp3631
(lp3632
g2323
as(g768
g3197
tp3633
(lp3634
g3198
as(g1041
g1044
tp3635
(lp3636
g3549
as(g757
g760
tp3637
(lp3638
g2950
as(g1162
g1165
tp3639
(lp3640
g2575
ag3057
ag1276
ag1957
ag1300
as(g1880
g2889
tp3641
(lp3642
g2448
as(g24
g828
tp3643
(lp3644
g428
as(g933
g2304
tp3645
(lp3646
g605
as(g2432
g1670
tp3647
(lp3648
g1671
ag907
ag2636
ag657
as(g525
g763
tp3649
(lp3650
g409
as(g1955
g3318
tp3651
(lp3652
g1565
as(g378
g1258
tp3653
(lp3654
g1982
as(g993
g2860
tp3655
(lp3656
g2539
as(g635
g3052
tp3657
(lp3658
g3053
as(g630
g1710
tp3659
(lp3660
g1711
ag2618
ag562
as(g136
g139
tp3661
(lp3662
g2571
as(g2547
g2963
tp3663
(lp3664
g2964
as(g907
g910
tp3665
(lp3666
g2995
as(g1182
g1185
tp3667
(lp3668
S'I'
as(g2575
g2578
tp3669
(lp3670
g3007
as(g481
g2408
tp3671
(lp3672
g3045
as(g1341
S'a'
tp3673
(lp3674
g1926
as(g432
g1788
tp3675
(lp3676
S'I'
as(g1995
g221
tp3677
(lp3678
g222
as(g584
g1354
tp3679
(lp3680
g1355
ag2001
as(g1403
g270
tp3681
(lp3682
g271
as(g2040
g1276
tp3683
(lp3684
g860
ag295
ag2059
as(g3134
g3323
tp3685
(lp3686
g413
as(g981
g145
tp3687
(lp3688
g146
ag2897
as(g1426
g1429
tp3689
(lp3690
g2255
as(g2238
g2241
tp3691
(lp3692
g3585
ag709
as(g549
g552
tp3693
(lp3694
g1678
as(g228
g231
tp3695
(lp3696
g232
as(g3393
g516
tp3697
(lp3698
g517
as(S'I'
g3080
tp3699
(lp3700
g2195
ag782
as(g261
g264
tp3701
(lp3702
g423
as(g89
g630
tp3703
(lp3704
g1710
as(g476
g2680
tp3705
(lp3706
g2681
as(g12
g958
tp3707
(lp3708
S'I'
as(g1360
g1363
tp3709
(lp3710
g1291
as(g1877
g1536
tp3711
(lp3712
g320
as.