(dp1
(S'terrace,'
p2
S'made'
p3
tp4
(lp5
S'a'
as(S'have'
p6
S'known'
p7
tp8
(lp9
S'them'
p10
aS'the'
p11
aS'the'
p12
as(S'and'
p13
S'bare'
p14
tp15
(lp16
S'(But'
p17
as(S'the'
p18
S'dead,'
p19
tp20
(lp21
S'Come'
p22
as(S'singing,'
p23
S'each'
p24
tp25
(lp26
S'to'
p27
as(S'the'
p28
S'stair,'
p29
tp30
(lp31
S'With'
p32
as(S'dare?"'
p33
S'Time'
p34
tp35
(lp36
S'to'
p37
as(S'and,'
p38
S'"Do'
p39
tp40
(lp41
S'I'
as(S'and'
p42
S'descend'
p43
tp44
(lp45
g28
as(S'on'
p46
S'a'
tp47
(lp48
S'pin,'
p49
aS'screen:'
p50
as(S'am'
p51
S'formulated,'
p52
tp53
(lp54
S'sprawling'
p55
as(S'sudden'
p56
S'leap,'
p57
tp58
(lp59
S'And'
p60
as(S'pipes'
p61
S'Of'
p62
tp63
(lp64
S'lonely'
p65
as(S'here'
p66
S'beside'
p67
tp68
(lp69
S'you'
p70
as(S'men'
p71
S'in'
p72
tp73
(lp74
S'shirt-sleeves,'
p75
as(S'that'
p76
S'falls'
p77
tp78
(lp79
S'from'
p80
as(S'I'
S'dare?"'
p81
tp82
(lp83
g38
ag34
as(S'legs'
p84
S'are'
p85
tp86
(lp87
S'thin!")'
p88
as(S'my'
p89
S'collar'
p90
tp91
(lp92
S'mounting'
p93
as(S'asleep.'
p94
S'And'
p95
tp96
(lp97
S'indeed'
p98
as(S'that'
p99
S'it'
p100
tp101
(lp102
S'was'
p103
as(g50
S'Would'
p104
tp105
(lp106
S'it'
p107
as(S'wonder,'
p108
S'"Do'
p109
tp110
(lp111
S'I'
as(S'butt-ends'
p112
S'of'
p113
tp114
(lp115
S'my'
p116
as(S'have'
p117
S'wept'
p118
tp119
(lp120
S'and'
p121
as(S'minute'
p122
S'will'
p123
tp124
(lp125
S'reverse.'
p126
as(S'toward'
p127
S'the'
p128
tp129
(lp130
S'window,'
p131
as(S'that'
p132
S'are'
p133
tp134
(lp135
S'braceleted'
p136
as(S'all,'
p137
S'After'
p138
tp139
(lp140
S'the'
p141
as(S'much'
p142
S'more?--'
p143
tp144
(lp145
S'It'
p146
as(S'to'
p147
S'me.'
p148
tp149
(lp150
S'I'
as(S'I'
S'know'
p151
tp152
(lp153
S'the'
p154
as(g77
g80
tp155
(lp156
S'chimneys,'
p157
as(S'morning'
p158
S'coat,'
p159
tp160
(lp161
g89
as(S'window-panes;'
p162
S'There'
p163
tp164
(lp165
S'will'
p166
as(S'about'
p167
S'the'
p168
tp169
(lp170
S'house,'
p171
as(S'say'
p172
S'just'
p173
tp174
(lp175
S'what'
p176
as(S'lie'
p177
S'along'
p178
tp179
(lp180
S'a'
as(S'what'
p181
S'I'
tp182
(lp183
S'meant'
p184
aS'mean!'
p185
aS'meant,'
p186
as(S'platter,'
p187
S'I'
tp188
(lp189
S'am'
p190
as(S'back'
p191
S'the'
p192
tp193
(lp194
S'soot'
p195
as(S'afraid.'
p196
S'And'
p197
tp198
(lp199
S'would'
p200
as(S'it'
p201
S'have'
p202
tp203
(lp204
S'been'
p205
aS'been'
p206
aS'been'
p207
aS'been'
p208
aS'been'
p209
as(S'to'
p210
S'be;'
p211
tp212
(lp213
S'Am'
p214
as(S'In'
p215
S'a'
tp216
(lp217
S'minute'
p218
as(S'visions'
p219
S'and'
p220
tp221
(lp222
S'revisions,'
p223
as(S'...'
p224
S'or'
p225
tp226
(lp227
S'it'
p228
as(S'I'
S'say,'
p229
tp230
(lp231
S'I'
as(S'For'
p232
S'the'
p233
tp234
(lp235
S'yellow'
p236
as(S'though'
p237
S'I'
tp238
(lp239
g117
as(S'of'
p240
S'the'
p241
tp242
(lp243
S'evening,'
p244
aS'waves'
p245
aS'sea'
p246
as(S'a'
S'bit'
p247
tp248
(lp249
S'obtuse;'
p250
as(S'patterns'
p251
S'on'
p252
tp253
(lp254
S'a'
as(S'the'
p255
S'universe'
p256
tp257
(lp258
S'into'
p259
as(S'the'
p260
S'skirts'
p261
tp262
(lp263
S'that'
p264
as(S'Like'
p265
S'a'
tp266
(lp267
S'patient'
p268
as(g264
S'trail'
p269
tp270
(lp271
S'along'
p272
as(S'pillow'
p273
S'by'
p274
tp275
(lp276
S'her'
p277
as(S'indecisions,'
p278
S'And'
p279
tp280
(lp281
S'for'
p282
as(g72
g75
tp283
(lp284
S'leaning'
p285
as(S'for'
p286
S'you'
p287
tp288
(lp289
S'and'
p290
as(S'lord,'
p291
S'one'
p292
tp293
(lp294
S'that'
p295
as(S'hair'
p296
S'is'
p297
tp298
(lp299
S'growing'
p300
as(S'and'
p301
S'walk'
p302
tp303
(lp304
S'upon'
p305
as(S'the'
p306
S'marmalade,'
p307
tp308
(lp309
S'the'
p310
as(S'eyes'
p311
S'already,'
p312
tp313
(lp314
S'known'
p315
as(S'bald)'
p316
S'brought'
p317
tp318
(lp319
S'in'
p320
as(S'stand'
p321
S'in'
p322
tp323
(lp324
S'drains,'
p325
as(S'which'
p326
S'a'
tp327
(lp328
g122
as(g57
g60
tp329
(lp330
S'seeing'
p331
as(S'about'
p332
S'a'
tp333
(lp334
S'shawl.'
p335
as(S'and'
p336
S'me.'
p337
tp338
(lp339
S'Should'
p340
as(S'meet;'
p341
S'There'
p342
tp343
(lp344
S'will'
p345
as(S'be'
p346
S'of'
p347
tp348
(lp349
S'use,'
p350
as(S'glad'
p351
S'to'
p352
tp353
(lp354
g346
as(g331
g99
tp355
(lp356
g100
as(S'as'
p357
S'if'
p358
tp359
(lp360
S'a'
as(S'a'
S'smile,'
p361
tp362
(lp363
S'To'
p364
as(S'the'
p365
S'wall,'
p366
tp367
(lp368
S'Then'
p369
as(S'at'
p370
S'dusk'
p371
tp372
(lp373
S'through'
p374
as(S'faces'
p375
S'that'
p376
tp377
(lp378
S'you'
p379
as(g159
g89
tp380
(lp381
g90
as(S'But'
p382
g357
tp383
(lp384
g358
as(S'question'
p385
S'on'
p386
tp387
(lp388
S'your'
p389
as(S'the'
p390
S'street,'
p391
tp392
(lp393
S'Rubbing'
p394
as(S'Slipped'
p395
S'by'
p396
tp397
(lp398
S'the'
p399
as(S'fell'
p400
g94
tp401
(lp402
g95
as(S'When'
p403
S'the'
p404
tp405
(lp406
S'evening'
p407
aS'wind'
p408
as(S'the'
p409
g61
tp410
(lp411
g62
as(S'And'
p412
S'when'
p413
tp414
(lp415
S'I'
as(g269
g272
tp416
(lp417
S'the'
p418
as(S'certain'
p419
S'half-deserted'
p420
tp421
(lp422
S'streets,'
p423
as(g220
g223
tp424
(lp425
S'Before'
p426
as(g320
S'upon'
p427
tp428
(lp429
S'a'
as(S'human'
p430
S'voices'
p431
tp432
(lp433
S'wake'
p434
as(S'should'
p435
S'have'
p436
tp437
(lp438
S'been'
p439
as(S'To'
p440
S'spit'
p441
tp442
(lp443
S'out'
p444
as(S'head,'
p445
S'Should'
p446
tp447
(lp448
S'say:'
p449
as(S'dare'
p450
S'Disturb'
p451
tp452
(lp453
S'the'
p454
as(S'is'
p455
S'spread'
p456
tp457
(lp458
S'out'
p459
as(S'behind?'
p460
S'Do'
p461
tp462
(lp463
S'I'
as(g37
S'turn'
p464
tp465
(lp466
S'back'
p467
as(g126
S'For'
p468
tp469
(lp470
S'I'
as(g361
g364
tp471
(lp472
S'have'
p473
as(g295
S'will'
p474
tp475
(lp476
S'do'
p477
as(S'to'
p478
S'force'
p479
tp480
(lp481
S'the'
p482
as(g103
S'a'
tp483
(lp484
S'soft'
p485
as(g482
S'moment'
p486
tp487
(lp488
S'to'
p489
aS'of'
p490
as(g154
S'voices'
p491
tp492
(lp493
S'dying'
p494
as(S'a'
S'hundred'
p495
tp496
(lp497
g278
ag219
as(S'already,'
p498
S'known'
p499
tp500
(lp501
S'them'
p502
aS'them'
p503
aS'them'
p504
as(S'in'
p505
g251
tp506
(lp507
g252
as(S'overwhelming'
p508
S'question'
p509
tp510
(lp511
S'...'
p512
as(S'threw'
p513
S'the'
p514
tp515
(lp516
S'nerves'
p517
as(S'say:'
p518
S'"But'
p519
tp520
(lp521
S'how'
p522
as(S'almost'
p523
S'ridiculous--'
p524
tp525
(lp526
S'Almost,'
p527
as(S'settling'
p528
S'a'
tp529
(lp530
g273
aS'pillow'
p531
as(S'it?"'
p532
S'Let'
p533
tp534
(lp535
S'us'
p536
as(g464
g467
tp537
(lp538
g42
as(S'all;'
p539
S'That'
p540
tp541
(lp542
S'is'
p543
as(S'am'
p544
S'Lazarus,'
p545
tp546
(lp547
S'come'
p548
as(S'for'
p549
S'me,'
p550
tp551
(lp552
S'And'
p553
as(S'after'
p554
g137
tp555
(lp556
g138
aS'Would'
p557
as(S'chambers'
p558
S'of'
p559
tp560
(lp561
S'the'
p562
as(S'And'
p563
S'watched'
p564
tp565
(lp566
S'the'
p567
as(g441
g444
tp568
(lp569
S'all'
p570
as(S'claws'
p571
S'Scuttling'
p572
tp573
(lp574
S'across'
p575
as(g131
S'should'
p576
tp577
(lp578
S'say:'
p579
as(S'but'
p580
S'a'
tp581
(lp582
g247
as(g228
S'malingers,'
p583
tp584
(lp585
S'Stretched'
p586
as(S'all'
p587
S'the'
p588
tp589
(lp590
S'works'
p591
ag112
as(S'Let'
p592
S'fall'
p593
tp594
(lp595
S'upon'
p596
as(S'impossible'
p597
S'to'
p598
tp599
(lp600
g172
as(S'matter'
p601
S'with'
p602
tp603
(lp604
S'a'
as(g62
g65
tp605
(lp606
g71
as(S'Till'
p607
g430
tp608
(lp609
g431
as(S'for'
p610
S'a'
tp611
(lp612
g495
aS'hundred'
p613
as(S'nor'
p614
S'was'
p615
tp616
(lp617
S'meant'
p618
as(S'My'
p619
g158
tp620
(lp621
g159
as(S'that'
p622
S'fix'
p623
tp624
(lp625
S'you'
p626
as(S'tongue'
p627
S'into'
p628
tp629
(lp630
S'the'
p631
as(S'pin--'
p632
S'(They'
p633
tp634
(lp635
S'will'
p636
as(g12
S'arms'
p637
tp638
(lp639
S'already,'
p640
as(S'shawl,'
p641
S'And'
p642
tp643
(lp644
S'turning'
p645
as(S'If'
p646
S'one,'
p647
tp648
(lp649
g528
aS'settling'
p650
as(S'prophet--and'
p651
S"here's"
p652
tp653
(lp654
S'no'
p655
as(g168
g171
tp656
(lp657
S'and'
p658
as(S'Advise'
p659
S'the'
p660
tp661
(lp662
S'prince;'
p663
as(S'all'
p664
g498
tp665
(lp666
g499
as(S'at'
p667
g539
tp668
(lp669
g540
as(S'dare'
p670
S'to'
p671
tp672
(lp673
S'eat'
p674
as(g485
S'October'
p675
tp676
(lp677
S'night,'
p678
as(S'beach.'
p679
S'I'
tp680
(lp681
S'have'
p682
as(S'a'
g50
tp683
(lp684
g104
as(S'decisions'
p685
S'and'
p686
tp687
(lp688
S'revisions'
p689
as(S'"What'
p690
S'is'
p691
tp692
(lp693
g532
as(g247
g250
tp694
(lp695
S'At'
p696
as(S'the'
p697
g558
tp698
(lp699
g559
as(S'a'
S'dress'
p700
tp701
(lp702
S'That'
p703
as(S'out'
p704
S'my'
p705
tp706
(lp707
S'life'
p708
as(S'a'
S'progress,'
p709
tp710
(lp711
S'start'
p712
as(g128
g131
tp713
(lp714
g576
as(S'Deferential,'
p715
g351
tp716
(lp717
g352
as(g689
g326
tp718
(lp719
S'a'
as(g67
g70
tp720
(lp721
g336
as(S'so'
p722
g142
tp723
(lp724
g143
as(S'phrase,'
p725
g412
tp726
(lp727
g413
as(S'snicker,'
p728
S'And'
p729
tp730
(lp731
S'in'
p732
as(S'the'
p733
S'music'
p734
tp735
(lp736
S'from'
p737
as(S'from'
p738
g409
tp739
(lp740
g61
ag19
as(S'go'
p741
S'Talking'
p742
tp743
(lp744
S'of'
p745
aS'of'
p746
as(g567
S'smoke'
p747
tp748
(lp749
S'that'
p750
as(S'Is'
p751
S'it'
p752
tp753
(lp754
S'perfume'
p755
as(S'time'
p756
S'yet'
p757
tp758
(lp759
g610
as(S'firmly'
p760
S'to'
p761
tp762
(lp763
S'the'
p764
as(g256
g259
tp765
(lp766
S'a'
as(S'for'
p767
g587
tp768
(lp769
g588
as(S'through'
p770
g419
tp771
(lp772
g420
as(g703
S'makes'
p773
tp774
(lp775
S'me'
p776
as(S'rolled.'
p777
S'Shall'
p778
tp779
(lp780
S'I'
as(g148
S'I'
tp781
(lp782
S'have'
p783
as(S'coat,'
p784
S'and'
p785
tp786
(lp787
g728
as(S'windows?'
p788
S'...'
p789
tp790
(lp791
S'I'
as(g562
g246
tp792
(lp793
S'By'
p794
as(S'I'
S'begin'
p795
tp796
(lp797
g440
as(S'indeed,'
p798
g523
tp799
(lp800
g524
as(g3
S'a'
tp801
(lp802
g56
as(S'window-panes,'
p803
S'The'
p804
tp805
(lp806
S'yellow'
p807
as(S'a'
S'pair'
p808
tp809
(lp810
S'of'
p811
as(S'tool,'
p812
g715
tp813
(lp814
g351
as(S'I'
g450
tp815
(lp816
g451
ag671
as(g572
g575
tp817
(lp818
S'the'
p819
as(g98
S'there'
p820
tp821
(lp822
S'will'
p823
aS'will'
p824
as(S'flannel'
p825
S'trousers,'
p826
tp827
(lp828
g301
as(S'each.'
p829
S'I'
tp830
(lp831
S'do'
p832
as(g95
g98
tp833
(lp834
g820
aS'there'
p835
as(g394
S'its'
p836
tp837
(lp838
S'back'
p839
as(S'bald'
p840
S'spot'
p841
tp842
(lp843
S'in'
p844
as(S'the'
p845
S'eternal'
p846
tp847
(lp848
S'Footman'
p849
as(S'days'
p850
S'and'
p851
tp852
(lp853
S'ways?'
p854
as(g854
S'And'
p855
tp856
(lp857
S'how'
p858
as(g371
g374
tp859
(lp860
S'narrow'
p861
as(g708
S'with'
p862
tp863
(lp864
S'coffee'
p865
as(S'that'
p866
g177
tp867
(lp868
g178
as(S'you'
p869
S'and'
p870
tp871
(lp872
S'I,'
p873
aS'time'
p874
ag337
aS'me,'
p875
as(S'along'
p876
g390
tp877
(lp878
g391
aS'floor--'
p879
as(g14
g17
tp880
(lp881
S'in'
p882
as(S'seaweed'
p883
S'red'
p884
tp885
(lp886
S'and'
p887
as(S'I'
g832
tp888
(lp889
S'not'
p890
as(S'water'
p891
S'white'
p892
tp893
(lp894
S'and'
p895
as(g844
S'the'
p896
tp897
(lp898
S'middle'
p899
aS'lamplight,'
p900
ag558
as(g489
S'its'
p901
tp902
(lp903
S'crisis?'
p904
as(S'prayed,'
p905
S'Though'
p906
tp907
(lp908
S'I'
as(g517
g505
tp909
(lp910
g251
as(g456
g459
tp911
(lp912
S'against'
p913
as(S'peach?'
p914
S'I'
tp915
(lp916
S'shall'
p917
as(S'and'
p918
S'the'
p919
tp920
(lp921
S'dooryards'
p922
aS'sprinkled'
p923
as(g459
g913
tp924
(lp925
S'the'
p926
as(S'make'
p927
S'our'
p928
tp929
(lp930
S'visit.'
p931
as(S'the'
p932
S'sunsets'
p933
tp934
(lp935
g918
as(g143
g146
tp936
(lp937
S'is'
p938
as(S'you'
p939
S'all,'
p940
tp941
(lp942
S'I'
as(g637
g640
tp943
(lp944
S'known'
p945
as(S'hair--'
p946
S'(They'
p947
tp948
(lp949
S'will'
p950
as(S'the'
p951
S'porcelain,'
p952
tp953
(lp954
S'among'
p955
as(g742
g745
tp956
(lp957
S'Michelangelo.'
p958
aS'Michelangelo.'
p959
as(S'hotels'
p960
S'And'
p961
tp962
(lp963
S'sawdust'
p964
as(S'my'
p965
S'greatness'
p966
tp967
(lp968
S'flicker,'
p969
as(S'the'
p970
S'strength'
p971
tp972
(lp973
g478
as(S'trousers'
p974
g777
tp975
(lp976
g778
as(g297
g300
tp977
(lp978
S'thin!")'
p979
as(S'We'
p980
S'have'
p981
tp982
(lp983
S'lingered'
p984
as(S'an'
p985
S'attendant'
p986
tp987
(lp988
g291
as(g849
S'hold'
p989
tp990
(lp991
S'my'
p992
as(S'formulated'
p993
g725
tp994
(lp995
g412
as(S'slightly'
p996
g316
tp997
(lp998
g317
as(S'all."'
p999
S'And'
p1000
tp1001
(lp1002
S'would'
p1003
as(g981
g984
tp1004
(lp1005
S'in'
p1006
as(g776
S'so'
p1007
tp1008
(lp1009
S'digress?'
p1010
as(S'to'
p1011
S'tell'
p1012
tp1013
(lp1014
g939
as(S'To'
p1015
g108
tp1016
(lp1017
g109
as(S'toward'
p1018
S'some'
p1019
tp1020
(lp1021
S'overwhelming'
p1022
as(S'squeezed'
p1023
g255
tp1024
(lp1025
g256
as(S'it'
p1026
g1018
tp1027
(lp1028
g1019
as(g564
g567
tp1029
(lp1030
g747
as(g923
S'streets,'
p1031
tp1032
(lp1033
S'After'
p1034
as(S'and'
p1035
S'drop'
p1036
tp1037
(lp1038
S'a'
as(S'Full'
p1039
S'of'
p1040
tp1041
(lp1042
S'high'
p1043
as(S'magic'
p1044
S'lantern'
p1045
tp1046
(lp1047
g513
as(S'its'
p1048
g627
tp1049
(lp1050
g628
as(g88
S'Do'
p1051
tp1052
(lp1053
S'I'
as(g109
S'I'
tp1054
(lp1055
g81
ag33
as(S'blown'
p1056
S'back'
p1057
tp1058
(lp1059
S'When'
p1060
as(S'at'
p1061
g999
tp1062
(lp1063
g1000
aS'No!'
p1064
as(S'blows'
p1065
S'the'
p1066
tp1067
(lp1068
g891
as(g1031
g1034
tp1069
(lp1070
S'the'
p1071
as(S'and'
p1072
S'we'
p1073
tp1074
(lp1075
S'drown.'
p1076
as(g100
g103
tp1077
(lp1078
S'a'
as(S'long'
p1079
S'fingers,'
p1080
tp1081
(lp1082
S'Asleep'
p1083
as(S'have'
p1084
S'bitten'
p1085
tp1086
(lp1087
S'off'
p1088
as(g225
g228
tp1089
(lp1090
g583
as(S'a'
g1044
tp1091
(lp1092
g1045
as(g1045
g513
tp1093
(lp1094
g514
as(S'of'
p1095
S'you'
p1096
tp1097
(lp1098
S'and'
p1099
as(S'time,'
p1100
S'there'
p1101
tp1102
(lp1103
S'will'
p1104
as(S'Combing'
p1105
S'the'
p1106
tp1107
(lp1108
S'white'
p1109
as(S'a'
S'farther'
p1110
tp1111
(lp1112
S'room.'
p1113
as(g1083
S'...'
p1114
tp1115
(lp1116
S'tired'
p1117
as(S'of'
p1118
S'hands'
p1119
tp1120
(lp1121
S'That'
p1122
as(g474
g477
tp1123
(lp1124
S'To'
p1125
as(S'all--'
p1126
S'Arms'
p1127
tp1128
(lp1129
g132
as(g671
g674
tp1130
(lp1131
S'a'
as(S'that'
p1132
S'slides'
p1133
tp1134
(lp1135
g876
as(S'a'
g641
tp1136
(lp1137
g642
as(S'In'
p1138
S'the'
p1139
tp1140
(lp1141
S'room'
p1142
aS'room'
p1143
as(S'evening,'
p1144
S'sleeps'
p1145
tp1146
(lp1147
S'so'
p1148
as(S'black.'
p1149
g980
tp1150
(lp1151
g981
as(g950
S'say:'
p1152
tp1153
(lp1154
S'"How'
p1155
ag519
as(g350
S'Politic,'
p1156
tp1157
(lp1158
S'cautious,'
p1159
as(S'and'
p1160
S'white'
p1161
tp1162
(lp1163
g13
as(S'simple'
p1164
g632
tp1165
(lp1166
g633
as(S'of'
p1167
S'a'
tp1168
(lp1169
S'toast'
p1170
as(g588
g591
tp1171
(lp1172
S'and'
p1173
as(g545
g548
tp1174
(lp1175
S'from'
p1176
as(S'no'
p1177
S'doubt,'
p1178
tp1179
(lp1180
S'an'
p1181
as(g1106
g1109
tp1182
(lp1183
S'hair'
p1184
as(S'create,'
p1185
S'And'
p1186
tp1187
(lp1188
S'time'
p1189
as(g11
g311
tp1190
(lp1191
g312
as(S'am'
p1192
S'pinned'
p1193
tp1194
(lp1195
S'and'
p1196
as(S'is'
p1197
S'time'
p1198
tp1199
(lp1200
S'For'
p1201
as(S'rises'
p1202
g738
tp1203
(lp1204
g409
as(g420
g423
tp1205
(lp1206
S'The'
p1207
as(S'Curled'
p1208
S'once'
p1209
tp1210
(lp1211
g167
as(S'all--'
p1212
S'The'
p1213
tp1214
(lp1215
S'eyes'
p1216
as(S'an'
p1217
g508
tp1218
(lp1219
g509
as(S'do'
p1220
S'not'
p1221
tp1222
(lp1223
S'ask,'
p1224
aS'think'
p1225
as(g1148
S'peacefully!'
p1226
tp1227
(lp1228
S'Smoothed'
p1229
as(S'seas.'
p1230
S'And'
p1231
tp1232
(lp1233
S'the'
p1234
as(g618
g210
tp1235
(lp1236
g211
as(g1142
S'the'
p1237
tp1238
(lp1239
S'women'
p1240
aS'women'
p1241
as(g992
g784
tp1242
(lp1243
g785
as(g527
S'at'
p1244
tp1245
(lp1246
S'times,'
p1247
as(g615
g618
tp1248
(lp1249
g210
as(g22
S'back'
p1250
tp1251
(lp1252
g1011
as(S'was'
p1253
g196
tp1254
(lp1255
g197
as(g732
S'short,'
p1256
tp1257
(lp1258
S'I'
as(S'wriggling'
p1259
S'on'
p1260
tp1261
(lp1262
g365
as(g509
g512
tp1263
(lp1264
S'Oh,'
p1265
as(g285
S'out'
p1266
tp1267
(lp1268
S'of'
p1269
as(S'my'
p1270
S'head'
p1271
tp1272
(lp1273
S'(grown'
p1274
as(g49
S'When'
p1275
tp1276
(lp1277
S'I'
as(S'Fool.'
p1278
S'I'
tp1279
(lp1280
S'grow'
p1281
as(S'universe?'
p1282
g215
tp1283
(lp1284
S'a'
as(S'the'
p1285
S'waves'
p1286
tp1287
(lp1288
g1105
ag1056
as(g913
g926
tp1289
(lp1290
S'sky'
p1291
as(g186
S'at'
p1292
tp1293
(lp1294
S'all."'
p1295
as(g686
g689
tp1296
(lp1297
g326
as(g10
g664
tp1298
(lp1299
g498
as(S'have'
p1300
S'measured'
p1301
tp1302
(lp1303
g704
as(S'old'
p1304
S'...'
p1305
tp1306
(lp1307
S'I'
aS'I'
as(S'Prince'
p1308
S'Hamlet,'
p1309
tp1310
(lp1311
g614
as(g1234
S'afternoon,'
p1312
tp1313
(lp1314
S'the'
p1315
as(g274
g277
tp1316
(lp1317
g445
as(S'and'
p1318
g741
tp1319
(lp1320
g742
aS'Talking'
p1321
as(g43
g28
tp1322
(lp1323
g29
as(g1080
g1083
tp1324
(lp1325
g1114
as(S'table;'
p1326
S'Let'
p1327
tp1328
(lp1329
S'us'
p1330
as(g1125
S'swell'
p1331
tp1332
(lp1333
S'a'
as(S'upon'
p1334
S'the'
p1335
tp1336
(lp1337
g803
aS'pools'
p1338
ag162
ag679
as(S'meticulous;'
p1339
g1039
tp1340
(lp1341
g1040
as(S'after'
p1342
S'tea'
p1343
tp1344
(lp1345
S'and'
p1346
as(S'I'
g185
tp1347
(lp1348
g382
as(S'cheap'
p1349
g960
tp1350
(lp1351
g961
as(S'the'
p1352
g408
tp1353
(lp1354
g1065
as(g439
S'a'
tp1355
(lp1356
g808
as(g200
g201
tp1357
(lp1358
g202
aS'have'
p1359
as(S'To'
p1360
S'say:'
p1361
tp1362
(lp1363
S'"I'
p1364
as(S'time'
p1365
g232
tp1366
(lp1367
g233
ag685
as(g819
S'floors'
p1368
tp1369
(lp1370
S'of'
p1371
as(g27
g829
tp1372
(lp1373
S'I'
as(g1343
g1346
tp1374
(lp1375
S'cakes'
p1376
as(S'I'
g6
tp1377
(lp1378
g7
ag1301
aS'known'
p1379
aS'known'
p1380
aS'gone'
p1381
ag118
aS'seen'
p1382
aS'seen'
p1383
aS'seen'
p1384
aS'heard'
p1385
aS'seen'
p1386
as(S'my'
p1387
g974
tp1388
(lp1389
g777
as(S'time'
p1390
S'To'
p1391
tp1392
(lp1393
S'prepare'
p1394
ag108
as(S'no'
p1395
g651
tp1396
(lp1397
g652
as(S'with'
p1398
g883
tp1399
(lp1400
g884
as(g1250
g1011
tp1401
(lp1402
g1012
as(S'Licked'
p1403
g1048
tp1404
(lp1405
g627
as(S'a'
g335
tp1406
(lp1407
S'And'
p1408
as(g1224
g690
tp1409
(lp1410
g691
as(g1209
g167
tp1411
(lp1412
g168
as(g1066
g891
tp1413
(lp1414
g892
as(g841
g844
tp1415
(lp1416
g896
as(S'throwing'
p1417
S'off'
p1418
tp1419
(lp1420
S'a'
as(g1271
g1274
tp1421
(lp1422
g996
as(S'all"--'
p1423
g646
tp1424
(lp1425
g647
as(g820
g823
tp1426
(lp1427
S'be'
p1428
aS'be'
p1429
aS'be'
p1430
as(S'the'
p1431
g1338
tp1432
(lp1433
S'that'
p1434
as(S'a'
g1170
tp1435
(lp1436
S'and'
p1437
as(S'floor,'
p1438
g66
tp1439
(lp1440
g67
as(g75
g285
tp1441
(lp1442
g1266
as(S'brown'
p1443
g607
tp1444
(lp1445
g430
as(g964
S'restaurants'
p1446
tp1447
(lp1448
S'with'
p1449
as(S'that'
p1450
S'follow'
p1451
tp1452
(lp1453
S'like'
p1454
as(g1036
S'a'
tp1455
(lp1456
g385
as(g1099
g875
tp1457
(lp1458
S'Would'
p1459
as(g434
S'us,'
p1460
tp1461
(lp1462
g1072
as(S'the'
p1463
g1278
tp1464
(lp1465
S'I'
as(S'that'
p1466
S'rubs'
p1467
tp1468
(lp1469
S'its'
p1470
aS'its'
p1471
as(S'Have'
p1472
S'known'
p1473
tp1474
(lp1475
S'the'
p1476
as(S'I'
S'shall'
p1477
tp1478
(lp1479
S'tell'
p1480
aS'wear'
p1481
aS'wear'
p1482
as(S'part'
p1483
S'my'
p1484
tp1485
(lp1486
S'hair'
p1487
as(S'time'
p1488
S'to'
p1489
tp1490
(lp1491
S'murder'
p1492
as(S'it,'
p1493
g554
tp1494
(lp1495
g137
aS'all,'
p1496
as(g1473
g1476
tp1497
(lp1498
S'evenings,'
p1499
ag311
ag637
as(g391
g394
tp1500
(lp1501
g836
as(g347
g350
tp1502
(lp1503
g1156
as(g93
g760
tp1504
(lp1505
g761
as(g386
g389
tp1506
(lp1507
S'plate;'
p1508
as(g512
g1265
tp1509
(lp1510
g1220
as(g1247
g1463
tp1511
(lp1512
g1278
as(S'asserted'
p1513
S'by'
p1514
tp1515
(lp1516
S'a'
as(S'the'
p1517
g112
tp1518
(lp1519
g113
as(S'moment'
p1520
g490
tp1521
(lp1522
g965
as(g1117
g224
tp1523
(lp1524
g225
as(S'fog'
p1525
g1466
tp1526
(lp1527
g1467
as(g495
g278
tp1528
(lp1529
g279
as(S'with'
p1530
S'light'
p1531
tp1532
(lp1533
S'brown'
p1534
as(g1155
S'his'
p1535
tp1536
(lp1537
g296
as(g479
g482
tp1538
(lp1539
g486
as(g596
S'its'
p1540
tp1541
(lp1542
g191
as(S'then,'
p1543
g869
tp1544
(lp1545
g870
as(g396
g399
tp1546
(lp1547
g2
as(g795
g440
tp1548
(lp1549
g441
as(S'sea-girls'
p1550
S'wreathed'
p1551
tp1552
(lp1553
g1398
as(g887
g1443
tp1554
(lp1555
g607
as(g1057
g1060
tp1556
(lp1557
g1352
as(g1482
S'white'
p1558
tp1559
(lp1560
g825
as(g141
S'cups,'
p1561
tp1562
(lp1563
g306
as(g136
g1160
tp1564
(lp1565
g1161
as(S'I'
S'then'
p1566
tp1567
(lp1568
S'presume?'
p1569
as(S'it,'
p1570
g1061
tp1571
(lp1572
g999
as(g1043
S'sentence,'
p1573
tp1574
(lp1575
g580
as(g734
g737
tp1576
(lp1577
S'a'
as(S'streets'
p1578
g563
tp1579
(lp1580
g564
as(g1071
S'novels,'
p1581
tp1582
(lp1583
S'after'
p1584
as(g1139
g1142
tp1585
(lp1586
g1237
aS'the'
p1587
as(g123
g126
tp1588
(lp1589
g468
as(g700
g703
tp1590
(lp1591
g773
as(g1207
S'muttering'
p1592
tp1593
(lp1594
S'retreats'
p1595
as(g729
g732
tp1596
(lp1597
g1256
as(g861
g1578
tp1598
(lp1599
g563
as(S'a'
S'tedious'
p1600
tp1601
(lp1602
S'argument'
p1603
as(g1454
S'a'
tp1604
(lp1605
g1600
as(S'all,'
p1606
S'That'
p1607
tp1608
(lp1609
S'is'
p1610
as(S'the'
p1611
g375
tp1612
(lp1613
g376
as(S'But'
p1614
g237
tp1615
(lp1616
S'I'
as(S'and'
p1617
g722
tp1618
(lp1619
g142
as(g1244
g1247
tp1620
(lp1621
g1463
as(g705
g708
tp1622
(lp1623
g862
as(S'smoke'
p1624
S'that'
p1625
tp1626
(lp1627
S'rubs'
p1628
ag1133
ag1202
as(S'or'
p1629
S'wrap'
p1630
tp1631
(lp1632
g332
as(g81
g38
tp1633
(lp1634
g39
as(g875
g1459
tp1635
(lp1636
S'it'
p1637
as(g514
g517
tp1638
(lp1639
g505
as(g1229
S'by'
p1640
tp1641
(lp1642
g1079
as(g576
g579
tp1643
(lp1644
S'"That'
p1645
as(S'a'
S'face'
p1646
tp1647
(lp1648
S'to'
p1649
as(g121
S'fasted,'
p1650
tp1651
(lp1652
S'wept'
p1653
as(S'the'
p1654
S'teacups,'
p1655
tp1656
(lp1657
S'after'
p1658
as(g1655
g1658
tp1659
(lp1660
g260
as(g1266
g1269
tp1661
(lp1662
g788
as(g1514
S'a'
tp1663
(lp1664
g1164
as(g279
g282
tp1665
(lp1666
S'a'
as(S'should'
p1667
S'I'
tp1668
(lp1669
S'presume?'
p1670
ag795
aS'presume?'
p1671
ag1566
aS'begin?'
p1672
as(g586
S'on'
p1673
tp1674
(lp1675
S'the'
p1676
as(g1535
g296
tp1677
(lp1678
g297
as(S'the'
p1679
g923
tp1680
(lp1681
g1031
as(g1551
g1398
tp1682
(lp1683
g883
as(g290
g874
tp1684
(lp1685
g549
as(g451
g454
tp1686
(lp1687
g1282
as(g696
S'times,'
p1688
tp1689
(lp1690
g798
as(g752
g755
tp1691
(lp1692
S'from'
p1693
as(g870
g873
tp1694
(lp1695
g403
as(g34
g37
tp1696
(lp1697
g464
as(g1600
g1603
tp1698
(lp1699
S'Of'
p1700
as(g65
g71
tp1701
(lp1702
g72
as(S'table,'
p1703
g1629
tp1704
(lp1705
g1630
as(S'while,'
p1706
S'After'
p1707
tp1708
(lp1709
g932
as(g1449
S'oyster-shells:'
p1710
tp1711
(lp1712
S'Streets'
p1713
as(g292
g295
tp1714
(lp1715
g474
as(g623
g626
tp1716
(lp1717
S'in'
p1718
as(S'lead'
p1719
S'you'
p1720
tp1721
(lp1722
S'to'
p1723
as(g652
g655
tp1724
(lp1725
S'great'
p1726
as(g660
g663
tp1727
(lp1728
g1177
as(S'arms'
p1729
S'and'
p1730
tp1731
(lp1732
g84
as(g1161
g13
tp1733
(lp1734
g14
ag1149
as(g1476
g1499
tp1735
(lp1736
S'mornings,'
p1737
as(g794
g1550
tp1738
(lp1739
g1551
as(g1231
g1234
tp1740
(lp1741
g1312
as(S'To'
p1742
S'roll'
p1743
tp1744
(lp1745
g1026
as(g178
S'a'
tp1746
(lp1747
g1703
as(S'ices,'
p1748
S'Have'
p1749
tp1750
(lp1751
g970
as(S'worth'
p1752
g1493
tp1753
(lp1754
g554
aS'after'
p1755
as(S'Shall'
p1756
S'I'
tp1757
(lp1758
g229
ag1483
as(S'I,'
p1759
g1342
tp1760
(lp1761
g1343
as(g755
g1693
tp1762
(lp1763
S'a'
as(g1371
S'silent'
p1764
tp1765
(lp1766
g1230
as(S'tea,'
p1767
S'Among'
p1768
tp1769
(lp1770
g951
as(S'while,'
p1771
S'To'
p1772
tp1773
(lp1774
g1084
as(g709
g712
tp1775
(lp1776
S'a'
as(g1688
g798
tp1777
(lp1778
g523
as(g1256
S'I'
tp1779
(lp1780
g1253
as(g647
g528
tp1781
(lp1782
S'a'
aS'a'
as(g1085
g1088
tp1783
(lp1784
S'the'
p1785
as(g404
g407
tp1786
(lp1787
g455
as(S'spoons;'
p1788
S'I'
tp1789
(lp1790
g151
as(g1386
S'them'
p1791
tp1792
(lp1793
S'riding'
p1794
as(g1225
S'that'
p1795
tp1796
(lp1797
S'they'
p1798
as(S'downed'
p1799
g1530
tp1800
(lp1801
g1531
as(g335
g1408
tp1802
(lp1803
S'should'
p1804
as(g1603
g1700
tp1805
(lp1806
S'insidious'
p1807
as(S'lift'
p1808
g1035
tp1809
(lp1810
g1036
as(g931
g1138
tp1811
(lp1812
g1139
as(g1335
g803
tp1813
(lp1814
g804
ag1403
as(g1496
g557
tp1815
(lp1816
S'it'
p1817
as(g958
S'The'
p1818
tp1819
(lp1820
S'yellow'
p1821
as(S'have'
p1822
g1382
tp1823
(lp1824
g1270
aS'the'
p1825
ag845
ag1791
as(g192
g195
tp1826
(lp1827
g76
as(S'one-night'
p1828
g1349
tp1829
(lp1830
g960
as(g938
g597
tp1831
(lp1832
g598
as(S'hair!)'
p1833
g751
tp1834
(lp1835
g752
as(S'meet'
p1836
g1611
tp1837
(lp1838
g375
as(g1330
S'go,'
p1839
tp1840
(lp1841
g770
as(g522
S'his'
p1842
tp1843
(lp1844
g1729
as(g675
g678
tp1845
(lp1846
g1208
as(S'days'
p1847
g1118
tp1848
(lp1849
g1119
as(S'I'
g186
tp1850
(lp1851
g1292
as(g1382
g1270
tp1852
(lp1853
g1271
as(g808
g811
tp1854
(lp1855
S'ragged'
p1856
as(g1484
g1487
tp1857
(lp1858
g460
as(S'and'
p1859
g1339
tp1860
(lp1861
g1039
as(S'fall'
p1862
S'Beneath'
p1863
tp1864
(lp1865
g733
as(S'or'
p1866
g1417
tp1867
(lp1868
g1418
as(S'upon'
p1869
S'a'
tp1870
(lp1871
g1326
ag187
as(g1295
g1064
tp1872
(lp1873
S'I'
as(g1566
g1569
tp1874
(lp1875
S'And'
p1876
as(g1122
g1808
tp1877
(lp1878
g1035
as(g519
g522
tp1879
(lp1880
g1842
as(g261
g264
tp1881
(lp1882
g269
as(S'tea.'
p1883
S'In'
p1884
tp1885
(lp1886
S'the'
p1887
as(g548
g1176
tp1888
(lp1889
g18
as(S'worth'
p1890
S'while'
p1891
tp1892
(lp1893
S'If'
p1894
as(g423
g1207
tp1895
(lp1896
g1592
as(S'I'
g51
tp1897
(lp1898
g52
ag1193
ag1395
aS'not'
p1899
as(g1821
g1525
tp1900
(lp1901
g1466
as(g928
g931
tp1902
(lp1903
g1138
as(g1794
S'seaward'
p1904
tp1905
(lp1906
S'on'
p1907
as(S'window-panes,'
p1908
g1403
tp1909
(lp1910
g1048
as(S'I'
g1281
tp1911
(lp1912
g1304
aS'old'
p1913
as(S'the'
p1914
g162
tp1915
(lp1916
g163
as(S'the'
p1917
S'taking'
p1918
tp1919
(lp1920
g1167
as(S'afternoons,'
p1921
S'I'
tp1922
(lp1923
g1300
as(S'a'
S'ball'
p1924
tp1925
(lp1926
g1742
as(g961
g964
tp1927
(lp1928
g1446
as(g146
g938
tp1929
(lp1930
g597
as(g399
g2
tp1931
(lp1932
g3
as(g1265
g1220
tp1933
(lp1934
g1221
as(g446
g449
tp1935
(lp1936
S'"That'
p1937
as(g1899
g1308
tp1938
(lp1939
g1309
as(g431
g434
tp1940
(lp1941
g1460
as(S'a'
S'scene'
p1942
tp1943
(lp1944
S'or'
p1945
as(g477
g1125
tp1946
(lp1947
g1331
as(g1798
S'will'
p1948
tp1949
(lp1950
S'sing'
p1951
as(g1471
S'muzzle'
p1952
tp1953
(lp1954
S'on'
p1955
as(g491
g494
tp1956
(lp1957
S'with'
p1958
as(g986
g291
tp1959
(lp1960
g292
as(g7
g10
tp1961
(lp1962
g664
aS'all:'
p1963
ag1212
ag1126
as(g1007
g1010
tp1964
(lp1965
S'Arms'
p1966
as(S'have'
p1967
g1381
tp1968
(lp1969
g370
as(g1376
S'and'
p1970
tp1971
(lp1972
g1748
as(g1240
S'come'
p1973
tp1974
(lp1975
g1318
aS'and'
p1976
as(g502
g1963
tp1977
(lp1978
g1472
as(g233
g236
tp1979
(lp1980
S'smoke'
p1981
as(g1481
S'the'
p1982
tp1983
(lp1984
S'bottoms'
p1985
as(g955
S'some'
p1986
tp1987
(lp1988
S'talk'
p1989
as(g24
g27
tp1990
(lp1991
g829
as(g1595
S'Of'
p1992
tp1993
(lp1994
S'restless'
p1995
as(g1989
g1095
tp1996
(lp1997
g1096
as(g811
g1856
tp1998
(lp1999
g571
as(g1193
g1196
tp2000
(lp2001
g1259
as(g1937
S'is'
p2002
tp2003
(lp2004
S'not'
p2005
aS'not'
p2006
as(S'necktie'
p2007
S'rich'
p2008
tp2009
(lp2010
S'and'
p2011
as(g761
g764
tp2012
(lp2013
S'chin,'
p2014
as(S'a'
g218
tp2015
(lp2016
S'there'
p2017
ag123
as(g906
S'I'
tp2018
(lp2019
g1822
as(g55
g46
tp2020
(lp2021
S'a'
as(g678
g1208
tp2022
(lp2023
g1209
as(S'To'
p2024
g1719
tp2025
(lp2026
g1720
as(g899
S'of'
p2027
tp2028
(lp2029
S'my'
p2030
as(g376
g379
tp2031
(lp2032
g341
as(g1156
g1159
tp2033
(lp2034
g1859
as(S'I'
g184
tp2035
(lp2036
g667
as(g1173
g1847
tp2037
(lp2038
g1118
as(g966
g969
tp2039
(lp2040
S'And'
p2041
as(g593
g596
tp2042
(lp2043
g1540
as(S'Let'
p2044
S'us'
p2045
tp2046
(lp2047
S'go'
p2048
ag1839
aS'go'
p2049
as(g655
g1726
tp2050
(lp2051
S'matter;'
p2052
as(g118
g121
tp2053
(lp2054
g1650
ag905
as(S'but'
p2055
g1513
tp2056
(lp2057
g1514
as(g745
g958
tp2058
(lp2059
g1818
aS'And'
p2060
as(g408
g1065
tp2061
(lp2062
g1066
as(g1088
g1785
tp2063
(lp2064
g601
as(S'dying'
p2065
g1862
tp2066
(lp2067
g1863
as(g1064
S'I'
tp2068
(lp2069
S'am'
p2070
as(g1418
S'a'
tp2071
(lp2072
g641
as(g807
g1624
tp2073
(lp2074
g1625
ag1132
as(S'the'
p2075
g679
tp2076
(lp2077
S'I'
as(g317
g320
tp2078
(lp2079
g427
as(g1221
g1224
tp2080
(lp2081
g690
as(g969
g2041
tp2082
(lp2083
S'I'
as(g1945
S'two,'
p2084
tp2085
(lp2086
g659
as(g1133
g876
tp2087
(lp2088
g390
as(g642
g645
tp2089
(lp2090
g127
as(g1109
g1184
tp2091
(lp2092
S'of'
p2093
as(g223
g426
tp2094
(lp2095
g1917
as(g826
g301
tp2096
(lp2097
g302
as(g613
g219
tp2098
(lp2099
g220
as(S'My'
p2100
g2007
tp2101
(lp2102
g2008
as(S'a'
g485
tp2103
(lp2104
g675
as(S'back'
p2105
g1334
tp2106
(lp2107
g1335
ag1914
as(g184
g667
tp2108
(lp2109
g539
as(g2002
g2005
tp2110
(lp2111
g181
ag1570
aS'it'
p2112
aS'what'
p2113
as(S'nights'
p2114
S'in'
p2115
tp2116
(lp2117
g1828
as(g190
g1395
tp2118
(lp2119
g651
as(g310
g1767
tp2120
(lp2121
g1768
as(g379
g341
tp2122
(lp2123
g342
as(g244
S'Lingered'
p2124
tp2125
(lp2126
S'upon'
p2127
as(g29
g32
tp2128
(lp2129
S'a'
as(g1720
g1723
tp2130
(lp2131
g1217
as(g32
S'a'
tp2132
(lp2133
g840
as(g337
g340
tp2134
(lp2135
g1759
as(g1189
g767
tp2136
(lp2137
g587
ag550
as(S'And'
p2138
S'I'
tp2139
(lp2140
S'have'
p2141
aS'have'
p2142
aS'have'
p2143
as(S'a'
g273
tp2144
(lp2145
g274
ag1866
as(g2008
g2011
tp2146
(lp2147
S'modest,'
p2148
as(g764
g2014
tp2149
(lp2150
g2100
as(g550
g553
tp2151
(lp2152
g756
as(g865
g1788
tp2153
(lp2154
S'I'
as(S'and'
p2155
g1185
tp2156
(lp2157
g1186
as(g214
g985
tp2158
(lp2159
g986
as(g1985
S'of'
p2160
tp2161
(lp2162
g1387
as(g1237
g1240
tp2163
(lp2164
g1973
aS'come'
p2165
as(g1640
g1079
tp2166
(lp2167
g1080
as(g138
g141
tp2168
(lp2169
g1561
ag933
ag1581
as(g1470
g2105
tp2170
(lp2171
g1334
ag192
aS'upon'
p2172
as(g2112
S'at'
p2173
tp2174
(lp2175
g1606
as(g2014
g2100
tp2176
(lp2177
g2007
as(g185
g382
tp2178
(lp2179
g357
as(g895
g1149
tp2180
(lp2181
g980
as(g300
g979
tp2182
(lp2183
g619
as(g1428
g1365
tp2184
(lp2185
g232
ag1391
ag1489
ag1015
as(g2048
g1543
tp2186
(lp2187
g869
as(g879
S'And'
p2188
tp2189
(lp2190
S'this,'
p2191
as(S'a'
g187
tp2192
(lp2193
S'I'
as(g1584
g1654
tp2194
(lp2195
g1655
ag261
as(g1309
g614
tp2196
(lp2197
g615
as(S'a'
g1326
tp2198
(lp2199
g1327
as(g1992
g1995
tp2200
(lp2201
g2114
as(g1477
g1480
tp2202
(lp2203
S'you'
p2204
as(S'mermaids'
p2205
g23
tp2206
(lp2207
g24
as(g1275
S'I'
tp2208
(lp2209
g1192
as(g60
g331
tp2210
(lp2211
g99
as(g1818
g1821
tp2212
(lp2213
g1525
ag1624
as(g2204
g1423
tp2214
(lp2215
g646
as(S'I'
g1672
tp2216
(lp2217
g1756
as(g1768
g951
tp2218
(lp2219
g952
as(g1963
g1472
tp2220
(lp2221
g1473
as(S'a'
g56
tp2222
(lp2223
g57
as(g628
g631
tp2224
(lp2225
S'corners'
p2226
as(g1394
S'a'
tp2227
(lp2228
g1646
as(g250
g696
tp2229
(lp2230
g1688
as(g1451
g1454
tp2231
(lp2232
S'a'
as(g1772
g1084
tp2233
(lp2234
g1085
ag1023
as(g1508
S'Time'
p2235
tp2236
(lp2237
g286
as(g1281
g1304
tp2238
(lp2239
g1305
aS'...'
p2240
as(g971
g478
tp2241
(lp2242
g479
as(g1807
S'intent'
p2243
tp2244
(lp2245
g2024
as(g1676
g1438
tp2246
(lp2247
g66
as(g531
g1866
tp2248
(lp2249
g1417
as(g1558
g825
tp2250
(lp2251
g826
as(g133
g136
tp2252
(lp2253
g1160
as(g494
g1958
tp2254
(lp2255
S'a'
as(g2070
g1899
tp2256
(lp2257
g1308
as(g1291
g265
tp2258
(lp2259
S'a'
as(g1630
g332
tp2260
(lp2261
S'a'
as(g1785
g601
tp2262
(lp2263
g602
as(g90
g93
tp2264
(lp2265
g760
as(S'and'
p2266
g905
tp2267
(lp2268
g906
as(g1012
g939
tp2269
(lp2270
g940
ag1423
as(g366
g369
tp2271
(lp2272
S'how'
p2273
as(g1951
g147
tp2274
(lp2275
g148
as(g940
S'I'
tp2276
(lp2277
g1477
as(g631
g2226
tp2278
(lp2279
g240
as(g218
g2017
tp2280
(lp2281
g1197
as(S'I'
g1483
tp2282
(lp2283
g1484
as(g1942
g1945
tp2284
(lp2285
g2084
as(g1467
g1470
tp2286
(lp2287
g2105
ag1952
as(g1970
g1748
tp2288
(lp2289
g1749
as(g2235
g286
tp2290
(lp2291
g287
as(g989
g992
tp2292
(lp2293
g784
as(g1186
g1189
tp2294
(lp2295
g767
ag757
as(g1226
g1229
tp2296
(lp2297
g1640
as(g1181
S'easy'
p2298
tp2299
(lp2300
g812
as(g524
g527
tp2301
(lp2302
g1244
as(g1531
g1534
tp2303
(lp2304
g1833
as(g1737
g1921
tp2305
(lp2306
S'I'
as(g1040
g1043
tp2307
(lp2308
g1573
as(g1113
S'So'
p2309
tp2310
(lp2311
S'how'
p2312
as(g663
g1177
tp2313
(lp2314
g1178
as(g2191
g1617
tp2315
(lp2316
g722
as(g1973
g1318
tp2317
(lp2318
g741
aS'go'
p2319
as(g851
g854
tp2320
(lp2321
g855
as(g846
g849
tp2322
(lp2323
g989
as(g413
S'I'
tp2324
(lp2325
g51
as(g1952
g1955
tp2326
(lp2327
S'the'
p2328
as(g1159
g1859
tp2329
(lp2330
g1339
as(g757
g610
tp2331
(lp2332
S'a'
as(g750
g1202
tp2333
(lp2334
g738
as(g1368
g1371
tp2335
(lp2336
g1764
as(g1286
g1105
tp2337
(lp2338
g1106
as(g947
g950
tp2339
(lp2340
g1152
ag518
as(g436
g439
tp2341
(lp2342
S'a'
ag1752
aS'worth'
p2343
aS'worth'
p2344
aS'worth'
p2345
ag1890
as(g1383
g1825
tp2346
(lp2347
g1520
ag846
as(g1726
g2052
tp2348
(lp2349
S'I'
as(S'a'
g268
tp2350
(lp2351
S'etherized'
p2352
as(g1948
g1951
tp2353
(lp2354
g147
as(g2173
g1606
tp2355
(lp2356
g1607
as(g1795
g1798
tp2357
(lp2358
g1948
as(g1213
g1216
tp2359
(lp2360
g622
as(g358
S'a'
tp2361
(lp2362
g1044
as(g195
g76
tp2363
(lp2364
g77
as(g2312
g1667
tp2365
(lp2366
S'I'
aS'I'
aS'I'
aS'I'
as(g1216
g622
tp2367
(lp2368
g623
as(g1561
g306
tp2369
(lp2370
g307
as(g1730
g84
tp2371
(lp2372
g85
as(g1170
g1437
tp2373
(lp2374
g1883
as(g151
g154
tp2375
(lp2376
g491
as(g17
g882
tp2377
(lp2378
S'the'
p2379
as(g1904
g1907
tp2380
(lp2381
g1285
as(g682
g1385
tp2382
(lp2383
S'the'
p2384
as(g486
g489
tp2385
(lp2386
g901
as(g926
g1291
tp2387
(lp2388
g265
as(g197
g200
tp2389
(lp2390
g201
aS'it'
p2391
as(g205
g1752
tp2392
(lp2393
g1493
ag1771
aS'it,'
p2394
ag1706
ag1891
as(g1764
g1230
tp2395
(lp2396
g1231
as(g1592
g1595
tp2397
(lp2398
g1992
as(g1891
g1894
tp2399
(lp2400
S'one,'
p2401
as(S'a'
g993
tp2402
(lp2403
g725
as(g2084
g659
tp2404
(lp2405
g660
as(g85
g88
tp2406
(lp2407
g1051
as(g1119
g1122
tp2408
(lp2409
g1808
as(g2124
g2127
tp2410
(lp2411
g1431
as(g1301
g704
tp2412
(lp2413
g705
as(g1391
g1394
tp2414
(lp2415
S'a'
as(g1791
g1794
tp2416
(lp2417
g1904
as(g2115
g1828
tp2418
(lp2419
g1349
as(g1145
g1148
tp2420
(lp2421
g1226
as(g1152
g1155
tp2422
(lp2423
g1535
as(g171
g658
tp2424
(lp2425
g400
as(S'a'
g1703
tp2426
(lp2427
g1629
as(g307
g310
tp2428
(lp2429
g1767
as(S'I'
g435
tp2430
(lp2431
g436
as(g737
S'a'
tp2432
(lp2433
g1110
ag700
as(g1010
g1966
tp2434
(lp2435
g866
as(g2352
g1869
tp2436
(lp2437
S'a'
as(g2045
g2048
tp2438
(lp2439
g1543
aS'and'
p2440
as(g2027
g2030
tp2441
(lp2442
g946
ag850
ag966
ag974
as(g325
g592
tp2443
(lp2444
g593
as(g1955
g2328
tp2445
(lp2446
g1908
ag366
ag1438
ag1286
as(g979
g619
tp2447
(lp2448
g158
as(g773
g776
tp2449
(lp2450
g1007
as(g575
g819
tp2451
(lp2452
g1368
as(g268
g2352
tp2453
(lp2454
g1869
as(g1178
g1181
tp2455
(lp2456
g2298
as(g1995
g2114
tp2457
(lp2458
g2115
as(g591
g1173
tp2459
(lp2460
g1847
as(g904
g1614
tp2461
(lp2462
g237
as(S'a'
g49
tp2463
(lp2464
g1275
as(S'question,'
p2465
g1360
tp2466
(lp2467
g1361
as(g80
g157
tp2468
(lp2469
g395
as(g1051
S'I'
tp2470
(lp2471
g450
ag670
as(g873
g403
tp2472
(lp2473
g404
as(g277
g445
tp2474
(lp2475
g446
as(g302
g305
tp2476
(lp2477
g2075
as(g674
S'a'
tp2478
(lp2479
g914
as(g1437
g1883
tp2480
(lp2481
g1884
as(g19
g22
tp2482
(lp2483
g1250
as(g2309
g2312
tp2484
(lp2485
g1667
as(g407
g455
tp2486
(lp2487
g456
as(S'a'
g840
tp2488
(lp2489
g841
as(g1346
g1376
tp2490
(lp2491
g1970
as(g241
g244
tp2492
(lp2493
g2124
ag1145
as(g1489
g1492
tp2494
(lp2495
g2155
as(g116
g850
tp2496
(lp2497
g851
as(g2384
g2205
tp2498
(lp2499
g23
as(g2343
g1771
tp2500
(lp2501
g1772
ag1707
as(g658
g400
tp2502
(lp2503
g94
as(S'not'
p2504
g1570
tp2505
(lp2506
g1061
as(g1446
g1449
tp2507
(lp2508
g1710
as(g583
g586
tp2509
(lp2510
g1673
as(g540
g543
tp2511
(lp2512
g2504
aS'not'
p2513
as(g1381
g370
tp2514
(lp2515
g371
as(g1958
S'a'
tp2516
(lp2517
g2065
ag361
as(g984
g1006
tp2518
(lp2519
g697
as(g823
g1428
tp2520
(lp2521
g1365
ag1100
ag1390
ag1488
aS'time'
p2522
as(g1649
g1836
tp2523
(lp2524
g1611
as(g503
g1212
tp2525
(lp2526
g1213
ag1127
as(g785
g728
tp2527
(lp2528
g729
as(g259
S'a'
tp2529
(lp2530
g1924
as(g2049
g2440
tp2531
(lp2532
g927
as(g1274
g996
tp2533
(lp2534
g316
as(g1184
g2093
tp2535
(lp2536
S'the'
p2537
as(g2011
g2148
tp2538
(lp2539
g2055
as(g2298
g812
tp2540
(lp2541
g715
as(g1022
g2465
tp2542
(lp2543
g1360
as(g468
S'I'
tp2544
(lp2545
g6
as(g1408
g1804
tp2546
(lp2547
S'I'
as(g900
g1799
tp2548
(lp2549
g1530
as(g1573
g580
tp2550
(lp2551
S'a'
as(g322
g325
tp2552
(lp2553
g592
as(g952
g955
tp2554
(lp2555
g1986
as(g1460
g1072
tp2556
(lp2557
g1073
as(g862
g865
tp2558
(lp2559
g1788
as(g1743
g1026
tp2560
(lp2561
g1018
as(g1114
g1117
tp2562
(lp2563
g224
as(g1700
g1807
tp2564
(lp2565
g2243
as(g2379
g900
tp2566
(lp2567
g1799
as(g919
g922
tp2568
(lp2569
S'and'
p2570
as(S'I'
g1670
tp2571
(lp2572
g2138
aS'And'
p2573
as(g2017
g1197
tp2574
(lp2575
g1198
as(g890
g1225
tp2576
(lp2577
g1795
as(g884
g887
tp2578
(lp2579
g1443
as(S'be'
p2580
g1100
tp2581
(lp2582
g1101
as(g1710
g1713
tp2583
(lp2584
g1450
as(g1499
g1737
tp2585
(lp2586
g1921
as(g2006
g2112
tp2587
(lp2588
g2173
as(g52
g55
tp2589
(lp2590
g46
as(g1331
S'a'
tp2591
(lp2592
g709
as(g2243
g2024
tp2593
(lp2594
g1719
as(g1646
g1649
tp2595
(lp2596
g1836
as(g163
g166
tp2597
(lp2598
g2580
aS'be'
p2599
as(g959
g2060
tp2600
(lp2601
S'indeed'
p2602
as(g1434
g321
tp2603
(lp2604
g322
as(g1361
g1364
tp2605
(lp2606
g544
as(g1842
g1729
tp2607
(lp2608
g1730
as(g2226
g240
tp2609
(lp2610
g241
as(g645
g127
tp2611
(lp2612
g128
as(g1650
g1653
tp2613
(lp2614
g2266
as(S'a'
g2065
tp2615
(lp2616
g1862
as(g789
S'I'
tp2617
(lp2618
g435
aS'grow'
p2619
aS'shall'
p2620
as(g2440
g927
tp2621
(lp2622
g928
as(g211
g214
tp2623
(lp2624
g985
as(g173
g176
tp2625
(lp2626
S'I'
as(g229
S'I'
tp2627
(lp2628
g1967
as(g374
g861
tp2629
(lp2630
g1578
as(g1670
g2138
tp2631
(lp2632
S'I'
aS'I'
aS'how'
p2633
as(g1459
g1637
tp2634
(lp2635
S'have'
p2636
aS'have'
p2637
aS'have'
p2638
as(g467
g42
tp2639
(lp2640
g43
as(g1713
g1450
tp2641
(lp2642
g1451
as(g2620
g1481
tp2643
(lp2644
g1982
ag1558
as(g1338
g1434
tp2645
(lp2646
g321
as(g598
g172
tp2647
(lp2648
g173
as(g1201
g685
tp2649
(lp2650
g686
as(g1196
g1259
tp2651
(lp2652
g1260
as(g1749
g970
tp2653
(lp2654
g971
as(g1364
g544
tp2655
(lp2656
g545
as(g1856
g571
tp2657
(lp2658
g572
as(g933
g918
tp2659
(lp2660
g919
as(g896
g899
tp2661
(lp2662
g2027
as(g1385
g2384
tp2663
(lp2664
g2205
as(g418
g879
tp2665
(lp2666
g2188
as(g473
g1023
tp2667
(lp2668
g255
as(g1487
g460
tp2669
(lp2670
g461
as(g1982
g1985
tp2671
(lp2672
g2160
as(g691
g532
tp2673
(lp2674
g533
as(g1581
g1584
tp2675
(lp2676
g1654
as(g157
g395
tp2677
(lp2678
g396
as(g2188
g2191
tp2679
(lp2680
g1617
as(g352
g346
tp2681
(lp2682
g347
as(g855
g858
tp2683
(lp2684
S'should'
p2685
aS'should'
p2686
as(S'a'
g914
tp2687
(lp2688
S'I'
as(g449
g1937
tp2689
(lp2690
g2002
aS'is'
p2691
as(S'a'
g1164
tp2692
(lp2693
g632
as(g1534
g1833
tp2694
(lp2695
g751
as(g1918
g1167
tp2696
(lp2697
S'a'
as(g1723
g1217
tp2698
(lp2699
g508
as(g1269
g788
tp2700
(lp2701
g789
as(g246
g794
tp2702
(lp2703
g1550
as(g1019
g1022
tp2704
(lp2705
g2465
as(g1492
g2155
tp2706
(lp2707
g1185
as(g922
g2570
tp2708
(lp2709
g1679
as(g1672
g1756
tp2710
(lp2711
S'I'
as(g340
g1759
tp2712
(lp2713
g1342
as(g369
g2273
tp2714
(lp2715
S'should'
p2716
as(g426
g1917
tp2717
(lp2718
g1918
as(S'a'
g385
tp2719
(lp2720
g386
as(g2148
g2055
tp2721
(lp2722
g1513
as(g1718
S'a'
tp2723
(lp2724
g993
as(g1986
g1989
tp2725
(lp2726
g1095
as(g1863
g733
tp2727
(lp2728
g734
as(g2052
S'I'
tp2729
(lp2730
S'have'
p2731
as(g1924
g1742
tp2732
(lp2733
g1743
as(g245
g1056
tp2734
(lp2735
g1057
as(g389
g1508
tp2736
(lp2737
g2235
as(g901
g904
tp2738
(lp2739
g1614
as(g712
S'a'
tp2740
(lp2741
g1942
as(g1110
g1113
tp2742
(lp2743
g2309
as(g1312
g1315
tp2744
(lp2745
g1144
as(g626
g1718
tp2746
(lp2747
S'a'
as(g1127
g132
tp2748
(lp2749
g133
ag177
as(g2005
g181
tp2750
(lp2751
S'I'
aS'I'
as(g444
g570
tp2752
(lp2753
g1517
as(S'I'
g1253
tp2754
(lp2755
g196
as(g2030
g946
tp2756
(lp2757
g947
as(g454
g1282
tp2758
(lp2759
g215
as(g1839
g770
tp2760
(lp2761
g419
as.