(dp1
(S'some'
p2
S'stone'
p3
tp4
(lp5
S'no'
p6
as(S'of'
p7
S'chrysolite'
p8
tp9
(lp10
S'with'
p11
aS'which'
p12
as(S'born'
p13
S'of'
p14
tp15
(lp16
S'horror'
p17
as(S'beings'
p18
S'and'
p19
tp20
(lp21
S'of'
p22
as(S'every'
p23
S'kind'
p24
tp25
(lp26
S'abounded.'
p27
as(S'the'
p28
S'temples,'
p29
tp30
(lp31
S'and'
p32
as(S'diamonds'
p33
S'and'
p34
tp35
(lp36
S'containing'
p37
as(S'tower-chamber,'
p38
S'wherefrom'
p39
tp40
(lp41
S'the'
p42
as(S'a'
S'mist;'
p43
tp44
(lp45
S'they'
p46
as(S'could'
p47
S'have'
p48
tp49
(lp50
S'come.'
p51
as(S'That'
p52
S'idol,'
p53
tp54
(lp55
S'enshrined'
p56
as(S'travelers'
p57
S'from'
p58
tp59
(lp60
S'Thraa'
p61
as(S'Sydathrian'
p62
S'groves,'
p63
tp64
(lp65
S'and'
p66
as(S'had'
p67
S'they'
p68
tp69
(lp70
S'not'
p71
as(S'the'
p72
S'world'
p73
tp74
(lp75
S'was'
p76
aS'of'
p77
aS'and'
p78
aS'and'
p79
as(g27
S'Great'
p80
tp81
(lp82
S'honors'
p83
as(S'was'
p84
S'writ'
p85
tp86
(lp87
S'a'
as(S'beside'
p88
S'the'
p89
tp90
(lp91
S'lake;'
p92
as(S'a'
S'caravan'
p93
tp94
(lp95
S'route,'
p96
as(S'the'
p97
S'lake'
p98
tp99
(lp100
S'itself,'
p101
aS'and'
p102
aS'and'
p103
aS'with'
p104
aS'where'
p105
aS'to'
p106
aS'in'
p107
aS'by'
p108
aS'and'
p109
aS'to'
p110
aS'to'
p111
as(S'morning'
p112
S'the'
p113
tp114
(lp115
S'people'
p116
as(S'feaster.'
p117
S'But'
p118
tp119
(lp120
S'most'
p121
as(S'beneath'
p122
S'it.'
p123
tp124
(lp125
S'At'
p126
as(S'a'
S'spot'
p127
tp128
(lp129
S'where'
p130
as(S'rubies'
p131
S'and'
p132
tp133
(lp134
S'diamonds.'
p135
ag33
as(S'the'
p136
S'bronze'
p137
tp138
(lp139
S'gates'
p140
as(S'open'
p141
S'and'
p142
tp143
(lp144
S'emptied'
p145
as(S'curious'
p146
S'green'
p147
tp148
(lp149
S'idol;'
p150
as(S'ends'
p151
S'of'
p152
tp153
(lp154
S'the'
p155
as(S'Sarnath'
p156
S'the'
p157
tp158
(lp159
S'kings'
p160
aS'magnificent.'
p161
aS'feast'
p162
as(S'beholder'
p163
S'might'
p164
tp165
(lp166
S'fancy'
p167
as(S'men'
p168
S'and'
p169
tp170
(lp171
S'elephants'
p172
as(S'Ib'
p173
S'their'
p174
tp175
(lp176
S'hate'
p177
as(S'and'
p178
S'many'
p179
tp180
(lp181
S'amphitheaters'
p182
aS'were'
p183
as(S'inchoate'
p184
S'and'
p185
tp186
(lp187
S'rudely'
p188
as(S'from'
p189
S'afar,'
p190
tp191
(lp192
S'as'
p193
as(S'than'
p194
S'any'
p195
tp196
(lp197
S'in'
p198
as(S'were'
p199
S'flooded'
p200
tp201
(lp202
S'with'
p203
as(S'spared,'
p204
S'save'
p205
tp206
(lp207
S'the'
p208
as(S'lake'
p209
g104
tp210
(lp211
S'long'
p212
as(S'neighboring'
p213
S'cities;'
p214
tp215
(lp216
S'and'
p217
as(S'men'
p218
S'now'
p219
tp220
(lp221
S'crawled'
p222
as(S'elephants'
p223
S'trod,'
p224
tp225
(lp226
S'which'
p227
as(S'did'
p228
S'not'
p229
tp230
(lp231
S'wish'
p232
aS'like'
p233
as(S'there'
p234
S'stood'
p235
tp236
(lp237
S'by'
p238
as(S'conquered'
p239
S'Pnoth,'
p240
tp241
(lp242
S'and'
p243
as(S'In'
p244
S'Sarnath'
p245
tp246
(lp247
S'were'
p248
as(S'in'
p249
S'very'
p250
tp251
(lp252
S'ancient'
p253
as(S'towers'
p254
S'and'
p255
tp256
(lp257
S'the'
p258
aS'without'
p259
as(S'shore'
p260
S'the'
p261
tp262
(lp263
S'mighty'
p264
as(S'and'
p265
S'deadly'
p266
tp267
(lp268
S'marine'
p269
as(S'pouting,'
p270
S'flabby'
p271
tp272
(lp273
S'lips,'
p274
aS'lips,'
p275
as(S'passed'
p276
S'over'
p277
tp278
(lp279
S'Sarnath,'
p280
as(S'carven'
p281
S'into'
p282
tp283
(lp284
S'designs'
p285
as(S'that'
p286
S'one'
p287
tp288
(lp289
S'within'
p290
aS'might'
p291
as(S'subsequently'
p292
S'worshipped'
p293
tp294
(lp295
S'beneath'
p296
as(S'of'
p297
S'princes'
p298
tp299
(lp300
S'and'
p301
as(S'and'
p302
S'adventurous'
p303
tp304
(lp305
S'young'
p306
as(S'melody'
p307
S'of'
p308
tp309
(lp310
S'the'
p311
as(S'who'
p312
S'built'
p313
tp314
(lp315
S'Thraa,'
p316
as(S'lived'
p317
g249
tp318
(lp319
g250
as(S'themselves,'
p320
S'in'
p321
tp322
(lp323
S'their'
p324
as(S'and'
p325
S'to'
p326
tp327
(lp328
S'shroud'
p329
as(S'almost'
p330
S'submerged.'
p331
tp332
(lp333
S'And'
p334
as(S'and'
p335
S'left'
p336
tp337
(lp338
S'a'
as(S'the'
p339
S'tents'
p340
tp341
(lp342
S'of'
p343
as(S'gleaming'
p344
S'floor.'
p345
tp346
(lp347
S'And'
p348
as(S'of'
p349
S'precious'
p350
tp351
(lp352
S'metal'
p353
as(S'cloths'
p354
S'and'
p355
tp356
(lp357
S'jewels'
p358
as(S'very'
p359
S'still,'
p360
tp361
(lp362
S'and'
p363
as(S'were'
p364
S'brought'
p365
tp366
(lp367
g189
as(S'danced'
p368
S'horribly'
p369
tp370
(lp371
S'when'
p372
as(g177
S'grew,'
p373
tp374
(lp375
S'and'
p376
as(S'though'
p377
S'no'
p378
tp379
(lp380
S'man'
p381
as(g150
S'an'
p382
tp383
(lp384
S'exceedingly'
p385
as(S'In'
p386
S'summer'
p387
tp388
(lp389
S'the'
p390
as(S'delicacies'
p391
S'at'
p392
tp393
(lp394
S'that'
p395
as(g277
g280
tp396
(lp397
S'wonder'
p398
as(S'a'
S'year'
p399
tp400
(lp401
S'at'
p402
as(S'with'
p403
S'cunning'
p404
tp405
(lp406
S'art.'
p407
as(S'not'
p408
S'meet'
p409
tp410
(lp411
S'that'
p412
as(S'elephants'
p413
S'men'
p414
tp415
(lp416
S'from'
p417
as(S'spanned'
p418
S'by'
p419
tp420
(lp421
S'a'
as(S'Wonderful'
p422
S'likewise'
p423
tp424
(lp425
S'were'
p426
as(g29
g32
tp427
(lp428
S'the'
p429
as(S'where'
p430
S'gathered'
p431
tp432
(lp433
S'throngs'
p434
as(S'paved,'
p435
S'save'
p436
tp437
(lp438
S'those'
p439
as(S'folk'
p440
S'with'
p441
tp442
(lp443
S'their'
p444
as(g345
g348
tp445
(lp446
S'it'
p447
as(S'of'
p448
S'Ilarnek,'
p449
tp450
(lp451
S'that'
p452
as(S'both'
p453
S'of'
p454
tp455
(lp456
S'waking'
p457
as(S'in'
p458
S'winter'
p459
tp460
(lp461
S'they'
p462
as(S'stands'
p463
S'there'
p464
tp465
(lp466
S'no'
p467
as(S'old'
p468
S'as'
p469
tp470
(lp471
g97
as(S'those'
p472
S'of'
p473
tp474
(lp475
S'the'
p476
aS'Zo-Kalar'
p477
as(S'only'
p478
S'the'
p479
tp480
(lp481
S'sky;'
p482
aS'brave'
p483
aS'marshy'
p484
as(S'to'
p485
S'life'
p486
tp487
(lp488
S'were'
p489
as(S'sea-wall'
p490
S'kept'
p491
tp492
(lp493
S'back'
p494
as(S'no'
p495
S'other'
p496
tp497
(lp498
S'city'
p499
as(S'them'
p500
S'as'
p501
tp502
(lp503
S'a'
as(S'in'
p504
S'all'
p505
tp506
(lp507
S'Mnar,'
p508
as(S'remained.'
p509
S'DOOM'
p510
tp511
(lp512
S'had'
p513
as(S'doomed'
p514
S'city'
p515
tp516
(lp517
S'of'
p518
as(S'pavilions'
p519
S'without'
p520
tp521
(lp522
S'the'
p523
as(S'In'
p524
S'that'
p525
tp526
(lp527
S'palace'
p528
as(S'before'
p529
S'ever'
p530
tp531
(lp532
S'the'
p533
as(S'water,'
p534
S'and'
p535
tp536
(lp537
S'saw'
p538
as(S'died,'
p539
S'Taran-Ish'
p540
tp541
(lp542
S'had'
p543
as(S'waterfalls'
p544
S'in'
p545
tp546
(lp547
S'their'
p548
as(S'the'
p549
S'shining'
p550
tp551
(lp552
S'domes'
p553
as(g431
g434
tp554
(lp555
S'in'
p556
as(S'of'
p557
S'Linplan,'
p558
tp559
(lp560
S'heels'
p561
as(S'it'
p562
S'near'
p563
tp564
(lp565
S'the'
p566
aS'the'
p567
as(S'sight'
p568
S'within'
p569
tp570
(lp571
S'the'
p572
as(S'old'
p573
S'women'
p574
tp575
(lp576
S'remembered'
p577
as(S'were'
p578
S'as'
p579
tp580
(lp581
S'many'
p582
aS'the'
p583
as(g271
g274
tp584
(lp585
S'and'
p586
aS'and'
p587
as(S'for'
p588
g495
tp589
(lp590
g496
as(S'conquest'
p591
S'over'
p592
tp593
(lp594
S'the'
p595
as(S'beings'
p596
S'weak,'
p597
tp598
(lp599
S'and'
p600
as(S'dark'
p601
S'shepherd'
p602
tp603
(lp604
g440
as(S'Ib'
p605
S'they'
p606
tp607
(lp608
S'marveled'
p609
aS'cast'
p610
as(g329
S'in'
p611
tp612
(lp613
S'a'
as(g381
S'lives'
p614
tp615
(lp616
S'who'
p617
as(S'Mnar,'
p618
S'and'
p619
tp620
(lp621
S'as'
p622
aS'suited'
p623
as(g311
S'waters.'
p624
tp625
(lp626
S'In'
p627
as(S'made'
p628
S'merry.'
p629
tp630
(lp631
S'And'
p632
as(S'the'
p633
g344
tp634
(lp635
g345
as(S'of'
p636
S'these'
p637
tp638
(lp639
S'beings,'
p640
as(S'whereon'
p641
S'the'
p642
tp643
(lp644
S'horses'
p645
as(g298
g301
tp646
(lp647
g339
aS'travelers'
p648
aS'travelers,'
p649
as(S'the'
p650
S'crowning'
p651
tp652
(lp653
S'dish'
p654
as(S'greatness'
p655
S'of'
p656
tp657
(lp658
S'the'
p659
as(S'on'
p660
S'golden'
p661
tp662
(lp663
S'platters,'
p664
as(S'when'
p665
g72
tp666
(lp667
g73
aS'moon'
p668
as(S'many'
p669
S'lands'
p670
tp671
(lp672
S'adjacent.'
p673
as(S'Then,'
p674
S'close'
p675
tp676
(lp677
S'to'
p678
as(S'bridges.'
p679
S'Many'
p680
tp681
(lp682
S'were'
p683
as(S'Ib'
p684
S'did'
p685
tp686
(lp687
S'the'
p688
as(S'Sarnath;'
p689
S'but'
p690
tp691
(lp692
S'though'
p693
as(S'and'
p694
S'hurrying'
p695
tp696
(lp697
S'slaves.'
p698
as(S'the'
p699
g161
tp700
(lp701
S'Of'
p702
as(S'and'
p703
S'caravans'
p704
tp705
(lp706
S'sought'
p707
as(S'tell;'
p708
S'unless'
p709
tp710
(lp711
S'it'
p712
as(S'day;'
p713
S'and'
p714
tp715
(lp716
S'at'
p717
as(S'water'
p718
S'conveyed'
p719
tp720
(lp721
S'from'
p722
as(S'the'
p723
S'water-lizard,'
p724
tp725
(lp726
S'and'
p727
as(S'the'
p728
S'streams'
p729
tp730
(lp731
S'and'
p732
as(S'as'
p733
S'jelly'
p734
tp735
(lp736
S'to'
p737
as(S'there'
p738
S'with'
p739
tp740
(lp741
S'bowers'
p742
as(S'beautiful,'
p743
S'and'
p744
tp745
(lp746
S'sent'
p747
as(g172
S'battled'
p748
tp749
(lp750
S'at'
p751
as(S'stream,'
p752
S'and'
p753
tp754
(lp755
S'out'
p756
as(S'most'
p757
S'other'
p758
tp759
(lp760
S'lands,'
p761
as(g476
S'palaces;'
p762
tp763
(lp764
g430
as(S'the'
p765
S'graceful'
p766
tp767
(lp768
S'bearded'
p769
as(g340
g343
tp770
(lp771
S'travelers.'
p772
as(S'madness'
p773
g13
tp774
(lp775
g14
as(S'In'
p776
S'the'
p777
tp778
(lp779
S'center'
p780
aS'tower'
p781
as(S'was'
p782
S'the'
p783
tp784
(lp785
S'sea-green'
p786
aS'palace'
p787
ag38
aS'feast'
p788
aS'high-priest'
p789
as(S'lake;'
p790
S'wondering'
p791
tp792
(lp793
S'from'
p794
as(S'liked'
p795
S'not'
p796
tp797
(lp798
S'these'
p799
as(S'like'
p800
S'them'
p801
tp802
(lp803
S'in'
p804
as(g707
S'that'
p805
tp806
(lp807
S'accursed'
p808
as(S'then'
p809
S'paid'
p810
tp811
(lp812
S'to'
p813
as(S'seen'
p814
S'no'
p815
tp816
(lp817
S'longer'
p818
as(S'eyes,'
p819
g270
tp820
(lp821
g271
aS'flabby'
p822
as(S'arose'
p823
S'from'
p824
tp825
(lp826
S'the'
p827
as(S'written'
p828
g636
tp829
(lp830
g637
as(S'the'
p831
S'visiting'
p832
tp833
(lp834
S'princes'
p835
as(S'a'
S'great'
p836
tp837
(lp838
S'space'
p839
as(S'swans,'
p840
S'whilst'
p841
tp842
(lp843
S'the'
p844
as(S'in'
p845
g519
tp846
(lp847
g520
as(g193
S'they'
p848
tp849
(lp850
S'must'
p851
aS'fled'
p852
as(S'of'
p853
S'vines'
p854
tp855
(lp856
S'and'
p857
as(S'lakelets'
p858
S'rode'
p859
tp860
(lp861
S'white'
p862
as(S'gray'
p863
S'sculptured'
p864
tp865
(lp866
S'monoliths'
p867
as(g805
g808
tp868
(lp869
S'city'
p870
as(S'shore,'
p871
S'was'
p872
tp873
(lp874
g330
as(S'many'
p875
S'palaces,'
p876
tp877
(lp878
S'the'
p879
as(S'amongst'
p880
S'them'
p881
tp882
(lp883
S'queer'
p884
as(S'out'
p885
S'over'
p886
tp887
(lp888
S'the'
p889
aS'the'
p890
as(S'the'
p891
S'wonder'
p892
tp893
(lp894
S'of'
p895
as(g429
S'gardens'
p896
tp897
(lp898
S'made'
p899
aS'made'
p900
aS'were'
p901
aS'of'
p902
as(S'the'
p903
S'windows'
p904
tp905
(lp906
S'were'
p907
as(S'and'
p908
g57
tp909
(lp910
g58
aS'fled'
p911
as(S'ceremonial'
p912
S'occasions.'
p913
tp914
(lp915
S'But'
p916
as(S'but'
p917
S'little'
p918
tp919
(lp920
S'of'
p921
as(S'years'
p922
g665
tp923
(lp924
g72
as(S'and'
p925
g623
tp926
(lp927
S'to'
p928
as(S'higher,'
p929
S'now'
p930
tp931
(lp932
S'stretched'
p933
as(S'walk'
p934
S'about'
p935
tp936
(lp937
S'the'
p938
as(g651
g654
tp939
(lp940
S'as'
p941
as(S'plains'
p942
S'and'
p943
tp944
(lp945
S'the'
p946
as(S'of'
p947
S'Mnar,'
p948
tp949
(lp950
S'another'
p951
ag601
ag619
as(S'king.'
p952
g776
tp953
(lp954
g777
as(S'shades'
p955
S'of'
p956
tp957
(lp958
S'those'
p959
as(S'the'
p960
S'landward'
p961
tp962
(lp963
g151
as(g479
g482
tp964
(lp965
S'yet'
p966
as(S'high'
p967
S'stood'
p968
tp969
(lp970
S'the'
p971
as(g695
g698
tp972
(lp973
S'There'
p974
as(S'Each'
p975
S'year'
p976
tp977
(lp978
S'there'
p979
as(S'hue'
p980
S'as'
p981
tp982
(lp983
S'green'
p984
as(S'which'
p985
S'no'
p986
tp987
(lp988
S'stream'
p989
as(S'and'
p990
S'lapis'
p991
tp992
(lp993
S'lazuli'
p994
as(S'flows.'
p995
S'Ten'
p996
tp997
(lp998
S'thousand'
p999
as(g80
g83
tp1000
(lp1001
S'were'
p1002
as(S'riches'
p1003
S'and'
p1004
tp1005
(lp1006
S'delight'
p1007
as(g744
g747
tp1008
(lp1009
S'forth'
p1010
as(S'those'
p1011
g18
tp1012
(lp1013
g19
as(S'is'
p1014
g359
tp1015
(lp1016
g360
as(S'set'
p1017
S'up'
p1018
tp1019
(lp1020
S'in'
p1021
as(g264
S'city'
p1022
tp1023
(lp1024
S'of'
p1025
as(g409
g412
tp1026
(lp1027
S'beings'
p1028
as(S'reason'
p1029
S'for'
p1030
tp1031
(lp1032
S'their'
p1033
as(S'palaces,'
p1034
S'all'
p1035
tp1036
(lp1037
S'of'
p1038
as(S'of'
p1039
S'how'
p1040
tp1041
(lp1042
S'the'
p1043
as(S'lands'
p1044
S'adjacent.'
p1045
tp1046
(lp1047
S'Thus'
p1048
aS'The'
p1049
aS'On'
p1050
as(S'Gorgeous'
p1051
S'beyond'
p1052
tp1053
(lp1054
S'thought'
p1055
as(S'himself'
p1056
S'walking'
p1057
tp1058
(lp1059
S'over'
p1060
as(g96
S'and'
p1061
tp1062
(lp1063
S'the'
p1064
as(g261
g264
tp1065
(lp1066
g1022
as(S'song,'
p1067
S'dancing,'
p1068
tp1069
(lp1070
S'and'
p1071
as(S'were'
p1072
S'these'
p1073
tp1074
(lp1075
S'beings,'
p1076
as(S'in'
p1077
S'detestation'
p1078
tp1079
(lp1080
S'of'
p1081
aS'of'
p1082
as(S'that'
p1083
S'from'
p1084
tp1085
(lp1086
S'their'
p1087
as(S'the'
p1088
S'orgies'
p1089
tp1090
(lp1091
S'of'
p1092
as(S'metals'
p1093
S'and'
p1094
tp1095
(lp1096
S'rare'
p1097
as(S'DOOM.'
p1098
S'After'
p1099
tp1100
(lp1101
S'Taran-Ish'
p1102
as(S'piece'
p1103
S'of'
p1104
tp1105
(lp1106
S'ivory,'
p1107
as(S'by'
p1108
S'the'
p1109
tp1110
(lp1111
S'figures'
p1112
aS'subtlest'
p1113
as(S'Lobon.'
p1114
S'For'
p1115
tp1116
(lp1117
S'so'
p1118
as(S'at'
p1119
S'dusk.'
p1120
tp1121
(lp1122
S'Nor'
p1123
as(S'indeed'
p1124
S'are'
p1125
tp1126
(lp1127
S'most'
p1128
as(g872
g330
tp1129
(lp1130
g331
as(S'talked'
p1131
S'of'
p1132
tp1133
(lp1134
S'in'
p1135
as(g92
S'the'
p1136
tp1137
(lp1138
S'gray'
p1139
as(S'curious'
p1140
S'ears;'
p1141
tp1142
(lp1143
S'things'
p1144
as(S'Nargis-Hei,'
p1145
S'the'
p1146
tp1147
(lp1148
S'king,'
p1149
as(S'words'
p1150
S'so'
p1151
tp1152
(lp1153
S'terrible'
p1154
as(S'the'
p1155
S'faces'
p1156
tp1157
(lp1158
S'of'
p1159
as(S'ugly'
p1160
g1072
tp1161
(lp1162
g1073
as(S'slingers'
p1163
S'and'
p1164
tp1165
(lp1166
S'the'
p1167
as(S'the'
p1168
S'great'
p1169
tp1170
(lp1171
S'water-lizard;'
p1172
aS'fishes'
p1173
aS'temple'
p1174
aS'water-lizard.'
p1175
as(S'less'
p1176
S'than'
p1177
tp1178
(lp1179
S'that'
p1180
as(S'should'
p1181
g934
tp1182
(lp1183
g935
as(S'the'
p1184
S'bones'
p1185
tp1186
(lp1187
S'of'
p1188
as(S'many'
p1189
g183
tp1190
(lp1191
S'the'
p1192
as(S'fashioned'
p1193
S'of'
p1194
tp1195
(lp1196
S'a'
as(S'view'
p1197
g689
tp1198
(lp1199
g690
as(S'sculptures'
p1200
S'upon'
p1201
tp1202
(lp1203
S'the'
p1204
as(S'aqueducts,'
p1205
S'and'
p1206
tp1207
(lp1208
S'then'
p1209
as(S'tales'
p1210
g1039
tp1211
(lp1212
g1040
aS'those'
p1213
as(S'and'
p1214
S'gray'
p1215
tp1216
(lp1217
S'stone'
p1218
as(S'calamity'
p1219
S'even'
p1220
tp1221
(lp1222
S'the'
p1223
as(S'horribly,'
p1224
S'bearing'
p1225
tp1226
(lp1227
S'in'
p1228
as(g188
S'fashioned.'
p1229
tp1230
(lp1231
S'It'
p1232
as(S'for'
p1233
S'there'
p1234
tp1235
(lp1236
S'had'
p1237
as(S'the'
p1238
g1044
tp1239
(lp1240
g1045
aS'adjacent.'
p1241
aS'beyond.'
p1242
as(S'seventy-five,'
p1243
S'so'
p1244
tp1245
(lp1246
S'that'
p1247
as(S'full'
p1248
S'five'
p1249
tp1250
(lp1251
S'hundred'
p1252
as(S'went'
p1253
S'thither,'
p1254
tp1255
(lp1256
S'and'
p1257
as(S'oil'
p1258
S'of'
p1259
tp1260
(lp1261
S'Dother'
p1262
as(g103
S'built'
p1263
tp1264
(lp1265
S'Sarnath'
p1266
as(S'were'
p1267
S'pitched'
p1268
tp1269
(lp1270
S'the'
p1271
as(S'river'
p1272
S'Ai'
p1273
tp1274
(lp1275
S'and'
p1276
as(g179
g182
tp1277
(lp1278
S'where'
p1279
as(S'the'
p1280
S'feasters.'
p1281
tp1282
(lp1283
S'Indeed,'
p1284
as(S'a'
S'sea-green'
p1285
tp1286
(lp1287
S'stone'
p1288
as(S'paved'
p1289
S'with'
p1290
tp1291
(lp1292
S'granite.'
p1293
as(g467
S'more.'
p1294
tp1295
(lp1296
S'It'
p1297
aS'It'
p1298
as(g203
g718
tp1299
(lp1300
g719
as(S'kings'
p1301
S'would'
p1302
tp1303
(lp1304
S'look'
p1305
as(S'first'
p1306
S'the'
p1307
tp1308
(lp1309
S'high-priests'
p1310
as(g464
g467
tp1311
(lp1312
g1294
as(S'arose'
p1313
S'a'
tp1314
(lp1315
g93
as(S'were'
p1316
S'also'
p1317
tp1318
(lp1319
S'many'
p1320
as(S'For'
p1321
S'a'
tp1322
(lp1323
S'decade'
p1324
as(g614
g617
tp1325
(lp1326
S'knows'
p1327
as(g801
g804
tp1328
(lp1329
S'the'
p1330
as(S'came'
p1331
S'to'
p1332
tp1333
(lp1334
S'the'
p1335
aS'the'
p1336
aS'Sarnath'
p1337
as(S'was'
p1338
S'done'
p1339
tp1340
(lp1341
S'the'
p1342
as(S'Kadatheron'
p1343
S'on'
p1344
tp1345
(lp1346
S'the'
p1347
as(S'was'
p1348
S'wont'
p1349
tp1350
(lp1351
S'to'
p1352
as(S'domes'
p1353
S'of'
p1354
tp1355
(lp1356
S'fated'
p1357
as(S'city'
p1358
S'and'
p1359
tp1360
(lp1361
S'the'
p1362
aS'its'
p1363
as(S'stars'
p1364
S'and'
p1365
tp1366
(lp1367
S'planets,'
p1368
aS'planets'
p1369
as(S'all'
p1370
S'things'
p1371
tp1372
(lp1373
S'of'
p1374
as(g690
g693
tp1375
(lp1376
S'they'
p1377
as(S'After'
p1378
S'many'
p1379
tp1380
(lp1381
S'eons'
p1382
as(S'which'
p1383
S'danced'
p1384
tp1385
(lp1386
g1224
as(S'cooks'
p1387
g504
tp1388
(lp1389
g505
as(S'the'
p1390
S'plain,'
p1391
tp1392
(lp1393
S'so'
p1394
as(S'then'
p1395
S'only'
p1396
tp1397
(lp1398
S'the'
p1399
as(S'small'
p1400
S'gods.'
p1401
tp1402
(lp1403
g975
as(S'dead,'
p1404
S'as'
p1405
tp1406
(lp1407
S'from'
p1408
as(g306
S'men'
p1409
tp1410
(lp1411
S'of'
p1412
as(S'without'
p1413
g1219
tp1414
(lp1415
g1220
as(S'top.'
p1416
S'For'
p1417
tp1418
(lp1419
g1248
as(g142
g145
tp1420
(lp1421
S'forth'
p1422
as(S'a'
g146
tp1423
(lp1424
g147
as(S'that'
p1425
S'no'
p1426
tp1427
(lp1428
S'hearer'
p1429
as(S'which'
p1430
S'shone'
p1431
tp1432
(lp1433
S'the'
p1434
as(S'in'
p1435
S'height'
p1436
tp1437
(lp1438
S'three'
p1439
as(S'vanished,'
p1440
S'and'
p1441
tp1442
(lp1443
S'how'
p1444
as(g540
g543
tp1445
(lp1446
S'scrawled'
p1447
aS'scrawled'
p1448
aS'died'
p1449
as(S'elsewhere.'
p1450
S'In'
p1451
tp1452
(lp1453
S'the'
p1454
as(S'written'
p1455
S'in'
p1456
tp1457
(lp1458
S'the'
p1459
as(S'priests'
p1460
S'held'
p1461
tp1462
(lp1463
S'revels,'
p1464
as(S'moon'
p1465
S'in'
p1466
tp1467
(lp1468
S'a'
as(S'above'
p1469
g633
tp1470
(lp1471
g344
as(S'men,'
p1472
S'none'
p1473
tp1474
(lp1475
S'can'
p1476
as(S'were'
p1477
S'surmounted'
p1478
tp1479
(lp1480
S'by'
p1481
as(S'as'
p1482
g472
tp1483
(lp1484
g473
as(S'earth.'
p1485
S'Not'
p1486
tp1487
(lp1488
S'far'
p1489
as(S'seen'
p1490
S'over'
p1491
tp1492
(lp1493
S'the'
p1494
as(S'the'
p1495
S'high-priest'
p1496
tp1497
(lp1498
S'Taran-Ish'
p1499
aS'Gnai-Kah'
p1500
as(S'them'
p1501
g660
tp1502
(lp1503
g661
as(S'looked'
p1504
S'again'
p1505
tp1506
(lp1507
S'upon'
p1508
as(S'men'
p1509
S'drove'
p1510
tp1511
(lp1512
S'them'
p1513
as(S'into'
p1514
S'the'
p1515
tp1516
(lp1517
g209
ag790
aS'lake,'
p1518
as(S'warriors,'
p1519
S'the'
p1520
tp1521
(lp1522
g1163
as(S'Ib'
p1523
S'were'
p1524
tp1525
(lp1526
S'in'
p1527
as(g859
g862
tp1528
(lp1529
g840
as(S'green'
p1530
S'and'
p1531
tp1532
(lp1533
S'gardens'
p1534
as(g961
g151
tp1535
(lp1536
g152
as(g113
g116
tp1537
(lp1538
S'found'
p1539
aS'who'
p1540
as(g951
S'city'
p1541
tp1542
(lp1543
S'stood'
p1544
as(S'ears,'
p1545
S'and'
p1546
tp1547
(lp1548
S'were'
p1549
as(S'king.'
p1550
S'There'
p1551
tp1552
(lp1553
S'were'
p1554
as(S'is'
p1555
S'fed'
p1556
tp1557
(lp1558
S'by'
p1559
as(S'and'
p1560
S'stars'
p1561
tp1562
(lp1563
S'and'
p1564
as(S'covering'
p1565
S'a'
tp1566
(lp1567
g836
as(S'worship'
p1568
S'of'
p1569
tp1570
(lp1571
S'Zo-Kalar'
p1572
as(S'banquet-hall'
p1573
S'reclined'
p1574
tp1575
(lp1576
g1145
as(S'indescribable'
p1577
S'green'
p1578
tp1579
(lp1580
S'voiceless'
p1581
as(S'the'
p1582
S'festival'
p1583
tp1584
(lp1585
S'of'
p1586
as(S'and'
p1587
S'in'
p1588
tp1589
(lp1590
S'the'
p1591
aS'time'
p1592
aS'breadth'
p1593
ag459
ag519
as(S'and'
p1594
S'from'
p1595
tp1596
(lp1597
S'which'
p1598
as(S'So'
p1599
S'one'
p1600
tp1601
(lp1602
S'day'
p1603
as(S'of'
p1604
S'Kadatheron'
p1605
tp1606
(lp1607
S'that'
p1608
as(S'crouching'
p1609
S'lions'
p1610
tp1611
(lp1612
S'rested'
p1613
as(S'Akurion'
p1614
S'was'
p1615
tp1616
(lp1617
S'quite'
p1618
as(S'sun'
p1619
S'and'
p1620
tp1621
(lp1622
S'moon'
p1623
aS'moon'
p1624
as(g1505
g1508
tp1625
(lp1626
S'the'
p1627
as(S'there'
p1628
S'sat'
p1629
tp1630
(lp1631
S'upon'
p1632
as(S'scarce'
p1633
g1176
tp1634
(lp1635
g1177
as(S'and'
p1636
g649
tp1637
(lp1638
S'as'
p1639
as(S'chrysolite'
p1640
g12
tp1641
(lp1642
S'bore'
p1643
as(S'the'
p1644
S'dead'
p1645
tp1646
(lp1647
S'that'
p1648
as(S'the'
p1649
S'land'
p1650
tp1651
(lp1652
S'of'
p1653
ag947
aS'of'
p1654
aS'of'
p1655
aS'of'
p1656
aS'of'
p1657
aS'of'
p1658
aS'of'
p1659
aS'adjacent'
p1660
aS'of'
p1661
as(S'of'
p1662
S'beryl'
p1663
tp1664
(lp1665
g990
as(g673
g1049
tp1666
(lp1667
S'wonder'
p1668
as(g240
g243
tp1669
(lp1670
S'surrounded'
p1671
as(S'chrysolite.'
p1672
S'Betwixt'
p1673
tp1674
(lp1675
S'Sarnath'
p1676
as(S'rare'
p1677
S'birds'
p1678
tp1679
(lp1680
S'chimed'
p1681
as(S'at'
p1682
S'which'
p1683
tp1684
(lp1685
S'time'
p1686
as(S'of'
p1687
g1098
tp1688
(lp1689
g1099
as(g1441
g1444
tp1690
(lp1691
S'Taran-Ish'
p1692
as(S'lake'
p1693
g106
tp1694
(lp1695
S'the'
p1696
aS'meet'
p1697
ag1197
as(g111
g1197
tp1698
(lp1699
g689
as(S'lake'
p1700
g108
tp1701
(lp1702
g713
as(g1104
g1107
tp1703
(lp1704
g377
as(S'by'
p1705
S'feasting'
p1706
tp1707
(lp1708
S'nobles'
p1709
as(S'and'
p1710
S'at'
p1711
tp1712
(lp1713
S'the'
p1714
aS'the'
p1715
as(S'and'
p1716
S'fifty'
p1717
tp1718
(lp1719
S'more'
p1720
as(S'along'
p1721
S'the'
p1722
tp1723
(lp1724
S'winding'
p1725
ag1416
as(S'nigh'
p1726
S'there'
p1727
tp1728
(lp1729
S'came'
p1730
as(S'to'
p1731
S'behold.'
p1732
tp1733
(lp1734
S'Very'
p1735
as(S'the'
p1736
S'inhabitants'
p1737
tp1738
(lp1739
S'thereof,'
p1740
as(S'the'
p1741
S'princes'
p1742
tp1743
(lp1744
S'of'
p1745
aS'of'
p1746
ag1636
as(g899
S'by'
p1747
tp1748
(lp1749
S'Zokkar'
p1750
aS'Zokkar'
p1751
as(g1683
g1686
tp1752
(lp1753
S'wine,'
p1754
as(g1107
g377
tp1755
(lp1756
g378
as(S'These'
p1757
S'men'
p1758
tp1759
(lp1760
S'indeed'
p1761
as(S'glazed'
p1762
S'brick'
p1763
tp1764
(lp1765
S'and'
p1766
as(S'the'
p1767
S'high-priests'
p1768
tp1769
(lp1770
S'dwelt'
p1771
aS'looked'
p1772
ag795
as(S'vast'
p1773
S'size,'
p1774
tp1775
(lp1776
S'and'
p1777
as(S'thousand'
p1778
S'cubits'
p1779
tp1780
(lp1781
g967
as(S'those'
p1782
S'in'
p1783
tp1784
(lp1785
S'the'
p1786
as(g1405
g1408
tp1787
(lp1788
S'some'
p1789
as(S'thing'
p1790
S'must'
p1791
tp1792
(lp1793
S'have'
p1794
as(S'pleasing'
p1795
S'jets'
p1796
tp1797
(lp1798
S'arranged'
p1799
as(S'vaults'
p1800
S'of'
p1801
tp1802
(lp1803
g239
as(S'they'
p1804
S'sometimes'
p1805
tp1806
(lp1807
S'saw'
p1808
as(S'with'
p1809
S'the'
p1810
tp1811
(lp1812
g307
as(g157
g160
tp1813
(lp1814
S'of'
p1815
aS'of'
p1816
ag1302
as(g1454
g781
tp1817
(lp1818
S'of'
p1819
as(g1159
S'this'
p1820
tp1821
(lp1822
S'throng'
p1823
as(S'nobles'
p1824
S'feasted'
p1825
tp1826
(lp1827
S'within'
p1828
as(S'marveled'
p1829
S'at'
p1830
tp1831
(lp1832
g549
as(S'nothing'
p1833
g204
tp1834
(lp1835
g205
as(S'served'
p1836
S'upon'
p1837
tp1838
(lp1839
S'golden'
p1840
as(S'may'
p1841
S'be,'
p1842
tp1843
(lp1844
S'it'
p1845
as(g538
S'that'
p1846
tp1847
(lp1848
S'the'
p1849
as(S'stadia'
p1850
S'did'
p1851
tp1852
(lp1853
S'they'
p1854
as(g499
S'had'
p1855
tp1856
(lp1857
S'houses'
p1858
as(S'desert-quarried'
p1859
S'marble'
p1860
tp1861
(lp1862
S'were'
p1863
as(S'every'
p1864
g117
tp1865
(lp1866
g118
as(g1173
S'from'
p1867
tp1868
(lp1869
S'the'
p1870
as(g483
g302
tp1871
(lp1872
g303
as(S'of'
p1873
g1762
tp1874
(lp1875
g1763
as(S'are'
p1876
S'known'
p1877
tp1878
(lp1879
S'to'
p1880
as(S'Ib'
p1881
S'and'
p1882
tp1883
(lp1884
S'slew'
p1885
as(S'the'
p1886
S'amphitheaters'
p1887
tp1888
(lp1889
g199
as(S'hour'
p1890
S'of'
p1891
tp1892
(lp1893
S'midnight,'
p1894
as(g1018
g1021
tp1895
(lp1896
S'the'
p1897
as(S'they'
p1898
S'had'
p1899
tp1900
(lp1901
S'bulging'
p1902
as(g732
g858
tp1903
(lp1904
g859
as(S'no'
p1905
S'kin'
p1906
tp1907
(lp1908
S'to'
p1909
as(S'of'
p1910
S'Bokrug,'
p1911
tp1912
(lp1913
g1168
aS'the'
p1914
ag723
aS'the'
p1915
aS'the'
p1916
as(g1489
S'from'
p1917
tp1918
(lp1919
S'the'
p1920
as(g1320
S'galleries,'
p1921
tp1922
(lp1923
g178
as(S'tower,'
p1924
S'often'
p1925
tp1926
(lp1927
S'performed'
p1928
as(g884
g1210
tp1929
(lp1930
g1039
as(S'against'
p1931
g1881
tp1932
(lp1933
g1882
as(g968
g971
tp1934
(lp1935
S'greatest'
p1936
as(g748
g751
tp1937
(lp1938
S'the'
p1939
as(S'streets,'
p1940
S'each'
p1941
tp1942
(lp1943
S'of'
p1944
as(S'whose'
p1945
S'eyes'
p1946
tp1947
(lp1948
S'were'
p1949
as(S'half'
p1950
S'buried'
p1951
tp1952
(lp1953
S'in'
p1954
as(S'disposed'
p1955
S'that'
p1956
tp1957
(lp1958
S'the'
p1959
as(S'and'
p1960
S'of'
p1961
tp1962
(lp1963
S'dream.'
p1964
ag669
aS'the'
p1965
aS'their'
p1966
aS'far'
p1967
as(g1941
g1944
tp1968
(lp1969
S'bronze,'
p1970
ag1773
as(g1365
g1368
tp1971
(lp1972
S'and'
p1973
as(S'gods'
p1974
S'themselves'
p1975
tp1976
(lp1977
S'sate'
p1978
as(S'on'
p1979
S'many'
p1980
tp1981
(lp1982
g912
as(S'polished'
p1983
g1859
tp1984
(lp1985
g1860
as(g1049
g1668
tp1986
(lp1987
S'of'
p1988
as(S'bodies'
p1989
g1514
tp1990
(lp1991
g1515
as(S'others'
p1992
S'feasted'
p1993
tp1994
(lp1995
g1450
as(g1180
S'of'
p1996
tp1997
(lp1998
S'the'
p1999
as(S'eikons'
p2000
S'of'
p2001
tp2002
(lp2003
S'other'
p2004
as(S'to'
p2005
g1337
tp2006
(lp2007
S'on'
p2008
as(g543
g1447
tp2009
(lp2010
S'upon'
p2011
aS'upon'
p2012
as(g1605
g1608
tp2013
(lp2014
S'the'
p2015
as(S'and'
p2016
S'temples'
p2017
tp2018
(lp2019
S'where'
p2020
as(S'the'
p2021
S'beholder.'
p2022
tp2023
(lp2024
S'Many'
p2025
as(g343
g772
tp2026
(lp2027
S'Within'
p2028
as(S'no'
p2029
g752
tp2030
(lp2031
g753
as(S'was'
p2032
S'mixed'
p2033
tp2034
(lp2035
S'hate,'
p2036
as(g3
g6
tp2037
(lp2038
S'longer'
p2039
as(S'had'
p2040
S'annihilated'
p2041
tp2042
(lp2043
S'the'
p2044
as(S'that'
p2045
S'blackened'
p2046
tp2047
(lp2048
g1390
as(S'a'
S'splendor'
p2049
tp2050
(lp2051
S'at'
p2052
as(S'warning.'
p2053
S'And'
p2054
tp2055
(lp2056
S'they'
p2057
as(g1825
g1828
tp2058
(lp2059
S'the'
p2060
as(S'their'
p2061
S'tents'
p2062
tp2063
(lp2064
S'and'
p2065
as(g24
g27
tp2066
(lp2067
g80
as(S'and'
p2068
S'splendid'
p2069
tp2070
(lp2071
g1482
as(S'Ib,'
p2072
S'which'
p2073
tp2074
(lp2075
S'was'
p2076
as(g1285
g1288
tp2077
(lp2078
S'idol'
p2079
aS'idol'
p2080
aS'idol'
p2081
as(S'and'
p2082
S'Lobon,'
p2083
tp2084
(lp2085
S'the'
p2086
as(S'with'
p2087
S'torches'
p2088
tp2089
(lp2090
S'dipt'
p2091
as(S'Mnar,'
p2092
g601
tp2093
(lp2094
g602
as(S'they'
p2095
S'descended'
p2096
tp2097
(lp2098
S'one'
p2099
as(S'sweet'
p2100
S'blossoms,'
p2101
tp2102
(lp2103
S'and'
p2104
as(S'they'
p2105
S'one'
p2106
tp2107
(lp2108
S'day'
p2109
as(S'unspeakable.'
p2110
S'And'
p2111
tp2112
(lp2113
S'before'
p2114
as(S'grew'
p2115
S'vaguely'
p2116
tp2117
(lp2118
S'yet'
p2119
as(S'a'
g773
tp2120
(lp2121
g13
as(S'that'
p2122
S'rise'
p2123
tp2124
(lp2125
S'above'
p2126
as(g1476
g708
tp2127
(lp2128
g709
as(S'unendurable,'
p2129
S'and'
p2130
tp2131
(lp2132
S'on'
p2133
as(g37
S'uncouth'
p2134
tp2135
(lp2136
S'flames.'
p2137
as(g766
g769
tp2138
(lp2139
g1974
as(S'was'
p2140
S'spied'
p2141
tp2142
(lp2143
S'a'
as(g185
g188
tp2144
(lp2145
g1229
as(S'and'
p2146
S'sardonyx'
p2147
tp2148
(lp2149
S'and'
p2150
as(S'soft'
p2151
g733
tp2152
(lp2153
g734
as(S'fans,'
p2154
S'and'
p2155
tp2156
(lp2157
g458
as(S'very'
p2158
S'secret'
p2159
tp2160
(lp2161
S'and'
p2162
as(S'pray'
p2163
S'to'
p2164
tp2165
(lp2166
g1400
as(S'idol'
p2167
S'gone'
p2168
tp2169
(lp2170
S'and'
p2171
as(g1959
g163
tp2172
(lp2173
g164
as(S'gardens'
p2174
S'it'
p2175
tp2176
(lp2177
S'was'
p2178
as(S'subdue'
p2179
S'the'
p2180
tp2181
(lp2182
g213
as(g1429
S'paused'
p2183
tp2184
(lp2185
S'for'
p2186
as(S'number,'
p2187
S'prepared'
p2188
tp2189
(lp2190
S'by'
p2191
as(g966
S'when'
p2192
tp2193
(lp2194
S'lighted'
p2195
as(S'the'
p2196
g1416
tp2197
(lp2198
g1417
as(g1284
g67
tp2199
(lp2200
g68
as(S'they'
p2201
S'lay,'
p2202
tp2203
(lp2204
g1565
as(S'written'
p2205
S'on'
p2206
tp2207
(lp2208
S'the'
p2209
as(g132
g135
tp2210
(lp2211
S'Whilst'
p2212
as(g1209
S'were'
p2213
tp2214
(lp2215
S'enacted'
p2216
as(S'rite'
p2217
g1077
tp2218
(lp2219
g1078
aS'detestation'
p2220
as(S'the'
p2221
g1034
tp2222
(lp2223
g1035
as(g12
g1643
tp2224
(lp2225
S'the'
p2226
as(S'And'
p2227
S'up'
p2228
tp2229
(lp2230
S'unending'
p2231
as(S'man'
p2232
S'is'
p2233
tp2234
(lp2235
S'young,'
p2236
as(S'open'
p2237
S'only'
p2238
tp2239
(lp2240
S'on'
p2241
as(g250
g253
tp2242
(lp2243
S'times,'
p2244
aS'living'
p2245
aS'city'
p2246
aS'and'
p2247
as(g930
g933
tp2248
(lp2249
S'only'
p2250
as(S'the'
p2251
S'bowmen,'
p2252
tp2253
(lp2254
S'marched'
p2255
as(S'years'
p2256
S'ago'
p2257
tp2258
(lp2259
g234
as(g1466
S'a'
tp2260
(lp2261
g43
aS'sinister'
p2262
as(S'Nargis-Hei'
p2263
S'and'
p2264
tp2265
(lp2266
S'his'
p2267
as(S'frenzied'
p2268
S'throng'
p2269
tp2270
(lp2271
g2045
as(S'that'
p2272
S'all'
p2273
tp2274
(lp2275
g831
as(S'travelers'
p2276
g1253
tp2277
(lp2278
g1254
as(S'and'
p2279
S'encircled'
p2280
tp2281
(lp2282
S'by'
p2283
as(S'had'
p2284
S'risen'
p2285
tp2286
(lp2287
S'walls'
p2288
as(S'tribes'
p2289
S'lay'
p2290
tp2291
(lp2292
S'the'
p2293
as(g1618
S'submerged.'
p2294
tp2295
(lp2296
S'Through'
p2297
as(S'the'
p2298
g1029
tp2299
(lp2300
g1030
as(g2022
g2025
tp2301
(lp2302
S'were'
p2303
as(S'more'
p2304
S'of'
p2305
tp2306
(lp2307
S'the'
p2308
as(g1459
S'papyrus'
p2309
tp2310
(lp2311
g448
as(S'priests'
p2312
S'and'
p2313
tp2314
(lp2315
g573
as(g505
g508
tp2316
(lp2317
g925
as(S'Ilarnek,'
p2318
S'was'
p2319
tp2320
(lp2321
g292
as(g1268
g1271
tp2322
(lp2323
S'pavilions'
p2324
as(g1382
S'men'
p2325
tp2326
(lp2327
S'came'
p2328
as(g550
g553
tp2329
(lp2330
S'wherewith'
p2331
as(S'high'
p2332
S'wall.'
p2333
tp2334
(lp2335
S'And'
p2336
as(S'a'
g1324
tp2337
(lp2338
S'had'
p2339
as(S'of'
p2340
S'Ib.'
p2341
tp2342
(lp2343
g244
ag1321
as(g1177
g1180
tp2344
(lp2345
g1996
as(S'them;'
p2346
g908
tp2347
(lp2348
g57
as(S'here'
p2349
S'rested'
p2350
tp2351
(lp2352
S'the'
p2353
as(g597
g600
tp2354
(lp2355
g2151
as(S'priests'
p2356
S'laughed'
p2357
tp2358
(lp2359
S'and'
p2360
as(S'found.'
p2361
S'And'
p2362
tp2363
(lp2364
S'many'
p2365
as(S'terraces'
p2366
S'rose'
p2367
tp2368
(lp2369
S'the'
p2370
as(g935
g938
tp2371
(lp2372
S'world'
p2373
as(g1591
g112
tp2374
(lp2375
g113
as(g1549
S'without'
p2376
tp2377
(lp2378
S'voice.'
p2379
as(S'feast;'
p2380
S'peacocks'
p2381
tp2382
(lp2383
S'from'
p2384
as(S'what'
p2385
S'Taran-Ish'
p2386
tp2387
(lp2388
S'had'
p2389
as(S'through'
p2390
g1430
tp2391
(lp2392
g1431
as(S'million'
p2393
S'of'
p2394
tp2395
(lp2396
g218
as(S'late'
p2397
S'in'
p2398
tp2399
(lp2400
S'the'
p2401
as(S'the'
p2402
S'coming'
p2403
tp2404
(lp2405
g1472
as(S'green'
p2406
S'banks,'
p2407
tp2408
(lp2409
S'adorned'
p2410
as(g1551
g1554
tp2411
(lp2412
g875
aS'eaten'
p2413
as(S'a'
g2262
tp2414
(lp2415
S'haze'
p2416
as(S'the'
p2417
S'Bnazic'
p2418
tp2419
(lp2420
S'desert,'
p2421
as(S'gates'
p2422
S'of'
p2423
tp2424
(lp2425
S'the'
p2426
aS'Sarnath'
p2427
aS'Sarnath'
p2428
as(g1002
g809
tp2429
(lp2430
g810
as(S'so'
p2431
g2397
tp2432
(lp2433
g2398
as(g921
S'the'
p2434
tp2435
(lp2436
S'very'
p2437
aS'lake'
p2438
aS'beings'
p2439
aS'labor'
p2440
aS'very'
p2441
aS'world'
p2442
aS'destroying'
p2443
aS'caravans,'
p2444
ag1940
ag1034
aS'palaces'
p2445
aS'rarest'
p2446
aS'kings'
p2447
aS'lands'
p2448
aS'kings.'
p2449
aS'kings.'
p2450
ag762
aS'sun'
p2451
ag624
aS'destroying'
p2452
ag1645
aS'lake.'
p2453
ag1281
aS'world.'
p2454
aS'thousandth'
p2455
aS'destroying'
p2456
aS'great'
p2457
ag568
aS'world'
p2458
as(S'come'
p2459
S'to'
p2460
tp2461
(lp2462
S'Sarnath.'
p2463
as(g2428
S'burst'
p2464
tp2465
(lp2466
g141
as(g1758
g1761
tp2467
(lp2468
S'went'
p2469
as(g1123
S'did'
p2470
tp2471
(lp2472
S'they'
p2473
as(S'touch'
p2474
S'them.'
p2475
tp2476
(lp2477
S'And'
p2478
as(S'and'
p2479
g738
tp2480
(lp2481
g739
as(S'was'
p2482
g1017
tp2483
(lp2484
g1018
as(g984
S'as'
p2485
tp2486
(lp2487
S'the'
p2488
as(S'been'
p2489
g1131
tp2490
(lp2491
g1132
as(S'But'
p2492
g1950
tp2493
(lp2494
g1951
as(S'throne,'
p2495
S'many'
p2496
tp2497
(lp2498
S'steps'
p2499
as(S'and'
p2500
S'tools'
p2501
tp2502
(lp2503
S'for'
p2504
as(g2057
S'said'
p2505
tp2506
(lp2507
g1083
as(S'each'
p2508
S'other'
p2509
tp2510
(lp2511
S'as'
p2512
as(S'gods'
p2513
S'and'
p2514
tp2515
(lp2516
S'beings'
p2517
as(S'flames'
p2518
g1979
tp2519
(lp2520
g1980
as(g290
S'might'
p2521
tp2522
(lp2523
S'sometimes'
p2524
as(S'Taran-Ish.'
p2525
g422
tp2526
(lp2527
g423
as(S'is'
p2528
S'certain'
p2529
tp2530
(lp2531
S'that'
p2532
as(S'wave-washed'
p2533
S'Mtal'
p2534
tp2535
(lp2536
S'dissolved'
p2537
as(S'each'
p2538
S'having'
p2539
tp2540
(lp2541
S'its'
p2542
as(g253
g2244
tp2543
(lp2544
S'and'
p2545
as(S'passed'
p2546
g1413
tp2547
(lp2548
g1219
as(g791
g794
tp2549
(lp2550
S'the'
p2551
as(g1154
g1425
tp2552
(lp2553
g1426
as(S'elephants'
p2554
S'carven'
p2555
tp2556
(lp2557
S'from'
p2558
as(g439
g641
tp2559
(lp2560
g642
as(S'and'
p2561
S'arrows.'
p2562
tp2563
(lp2564
g1599
as(g2213
g2216
tp2565
(lp2566
S'stirring'
p2567
as(g48
g51
tp2568
(lp2569
g524
as(S'curious'
p2570
g1545
tp2571
(lp2572
g1546
as(g376
S'it'
p2573
tp2574
(lp2575
S'was'
p2576
as(g747
g1010
tp2577
(lp2578
S'conquering'
p2579
as(g2017
g2020
tp2580
(lp2581
S'one'
p2582
as(S'which'
p2583
S'rears'
p2584
tp2585
(lp2586
S'high'
p2587
as(g1732
g1735
tp2588
(lp2589
S'odd'
p2590
as(S'which'
p2591
S'cast'
p2592
tp2593
(lp2594
S'scented'
p2595
as(g2150
S'carbuncle'
p2596
tp2597
(lp2598
S'and'
p2599
as(S'gray'
p2600
S'monoliths'
p2601
tp2602
(lp2603
S'of'
p2604
as(S'But'
p2605
S'with'
p2606
tp2607
(lp2608
S'their'
p2609
as(S'There'
p2610
S'is'
p2611
tp2612
(lp2613
S'in'
p2614
as(S'all'
p2615
S'mankind'
p2616
tp2617
(lp2618
S'was'
p2619
as(S'weird'
p2620
S'lights'
p2621
tp2622
(lp2623
S'were'
p2624
as(g627
S'ordered'
p2625
tp2626
(lp2627
g2366
as(S'to'
p2628
g2179
tp2629
(lp2630
g2180
as(S'run,'
p2631
S'being'
p2632
tp2633
(lp2634
g2237
as(g2619
S'Sarnath'
p2635
tp2636
(lp2637
g699
as(g986
g989
tp2638
(lp2639
g995
as(g2313
g573
tp2640
(lp2641
g574
as(S'materials,'
p2642
S'so'
p2643
tp2644
(lp2645
g1955
as(g1223
g2356
tp2646
(lp2647
g2357
ag1461
as(g1925
g1928
tp2648
(lp2649
S'the'
p2650
as(g1094
g1097
tp2651
(lp2652
g354
as(S'a'
S'multitude'
p2653
tp2654
(lp2655
S'of'
p2656
as(S'This'
p2657
S'the'
p2658
tp2659
(lp2660
S'young'
p2661
as(S'aloud'
p2662
S'of'
p2663
tp2664
(lp2665
S'the'
p2666
as(g198
S'Thraa'
p2667
tp2668
(lp2669
S'or'
p2670
as(g1263
g1266
tp2671
(lp2672
S'at'
p2673
as(S'aspect'
p2674
g1181
tp2675
(lp2676
g934
as(S'and'
p2677
g168
tp2678
(lp2679
g169
as(S'was'
p2680
g1833
tp2681
(lp2682
g204
as(S'descended'
p2683
g880
tp2684
(lp2685
g881
as(S'vinegar'
p2686
S'of'
p2687
tp2688
(lp2689
S'Thraa.'
p2690
as(g2269
g2045
tp2691
(lp2692
g2046
as(g205
g208
tp2693
(lp2694
S'sea-green'
p2695
as(g1620
g1623
tp2696
(lp2697
S'and'
p2698
ag1560
as(S'been,'
p2699
S'since'
p2700
tp2701
(lp2702
S'there'
p2703
as(g948
g951
tp2704
(lp2705
g1541
as(S'sign'
p2706
S'of'
p2707
tp2708
(lp2709
S'leadership'
p2710
ag1098
as(S'dome'
p2711
S'of'
p2712
tp2713
(lp2714
S'glass,'
p2715
as(g844
S'music'
p2716
tp2717
(lp2718
S'of'
p2719
as(S'Sarnath,'
p2720
g1710
tp2721
(lp2722
g1711
ag704
as(g1779
g967
tp2723
(lp2724
g968
as(g1473
g1476
tp2725
(lp2726
g708
as(S'reflections'
p2727
S'in'
p2728
tp2729
(lp2730
S'the'
p2731
as(S'at'
p2732
S'night.'
p2733
tp2734
(lp2735
S'Here'
p2736
as(S'celebrated'
p2737
S'in'
p2738
tp2739
(lp2740
S'Sarnath'
p2741
as(S'surmounted.'
p2742
S'But'
p2743
tp2744
(lp2745
S'more'
p2746
as(g595
S'old'
p2747
tp2748
(lp2749
g2513
as(S'fear'
p2750
g335
tp2751
(lp2752
g336
as(g1882
g1885
tp2753
(lp2754
S'all'
p2755
as(S'were'
p2756
S'found'
p2757
tp2758
(lp2759
S'in'
p2760
as(S'images'
p2761
S'of'
p2762
tp2763
(lp2764
S'the'
p2765
as(g2245
S'things.'
p2766
tp2767
(lp2768
g1378
as(S'dancers'
p2769
S'and'
p2770
tp2771
(lp2772
S'lutanists'
p2773
as(g6
g2039
tp2774
(lp2775
S'known'
p2776
aS'the'
p2777
as(g702
g1983
tp2778
(lp2779
g1859
as(S'mines'
p2780
g349
tp2781
(lp2782
g350
as(g563
g566
tp2783
(lp2784
g871
aS'shore,'
p2785
as(S'the'
p2786
S'floors'
p2787
tp2788
(lp2789
S'were'
p2790
as(g981
g984
tp2791
(lp2792
g2485
as(g2766
g1378
tp2793
(lp2794
g1379
as(g2290
g2293
tp2795
(lp2796
S'first'
p2797
as(S'walled'
p2798
S'garden'
p2799
tp2800
(lp2801
S'and'
p2802
as(g2147
g2150
tp2803
(lp2804
g2596
as(g2746
S'marvelous'
p2805
tp2806
(lp2807
S'still'
p2808
as(S'their'
p2809
g2727
tp2810
(lp2811
g2728
as(g832
g835
tp2812
(lp2813
S'and'
p2814
as(S'and'
p2815
g281
tp2816
(lp2817
g282
as(S'years'
p2818
g2546
tp2819
(lp2820
g1413
as(g109
S'curse'
p2821
tp2822
(lp2823
g1184
as(S'of'
p2824
S'camels'
p2825
tp2826
(lp2827
S'from'
p2828
as(S'queer'
p2829
g1989
tp2830
(lp2831
g1514
as(g102
S'the'
p2832
tp2833
(lp2834
S'mists'
p2835
aS'vast'
p2836
aS'spearmen'
p2837
ag2252
ag1496
aS'city'
p2838
aS'precious'
p2839
aS'pride'
p2840
ag29
ag896
ag942
ag1700
aS'memory'
p2841
aS'lands'
p2842
ag340
aS'damnable'
p2843
ag1353
aS'land'
p2844
aS'gray'
p2845
as(g2449
S'Sometimes'
p2846
tp2847
(lp2848
g1886
as(S'beings'
p2849
S'not'
p2850
tp2851
(lp2852
S'pleasing'
p2853
as(S'For'
p2854
S'on'
p2855
tp2856
(lp2857
g1155
as(g1431
g1434
tp2858
(lp2859
g1619
as(g553
g2331
tp2860
(lp2861
S'they'
p2862
as(S'onyx'
p2863
S'were'
p2864
tp2865
(lp2866
S'they'
p2867
as(S'Sarnath'
p2868
g463
tp2869
(lp2870
g464
as(S'Not'
p2871
S'like'
p2872
tp2873
(lp2874
S'the'
p2875
as(S'and'
p2876
S'amazing'
p2877
tp2878
(lp2879
S'were'
p2880
as(S'forms'
p2881
S'of'
p2882
tp2883
(lp2884
g2263
as(S'and'
p2885
S'armies,'
p2886
tp2887
(lp2888
S'of'
p2889
as(S'Mnar'
p2890
g1014
tp2891
(lp2892
g359
as(g2698
S'planets'
p2893
tp2894
(lp2895
S'when'
p2896
aS'when'
p2897
as(g2285
g2288
tp2898
(lp2899
S'of'
p2900
as(S'told'
p2901
S'that'
p2902
tp2903
(lp2904
S'in'
p2905
as(g1696
g2422
tp2906
(lp2907
g2423
aS'of'
p2908
as(S'high'
p2909
S'temple'
p2910
tp2911
(lp2912
S'at'
p2913
as(S'of'
p2914
S'Sarnath'
p2915
tp2916
(lp2917
g1331
aS'beheld'
p2918
ag578
aS'were'
p2919
ag2201
ag2464
aS'on'
p2920
as(g2079
S'chiseled'
p2921
tp2922
(lp2923
S'in'
p2924
aS'in'
p2925
aS'in'
p2926
as(S'beings'
p2927
S'of'
p2928
tp2929
(lp2930
S'a'
ag1523
ag605
aS'such'
p2931
ag173
aS'Ib,'
p2932
as(g326
g329
tp2933
(lp2934
g611
as(g2104
S'seats'
p2935
tp2936
(lp2937
S'and'
p2938
as(S'a'
S'magnificence'
p2939
tp2940
(lp2941
g1633
as(S'the'
p2942
S'marble'
p2943
tp2944
(lp2945
S'walls'
p2946
as(S'never'
p2947
g782
tp2948
(lp2949
g783
as(S'of'
p2950
S'monarchs.'
p2951
tp2952
(lp2953
g2871
as(g2690
S'Of'
p2954
tp2955
(lp2956
S'sauces'
p2957
as(g2504
S'artificers'
p2958
tp2959
(lp2960
S'and'
p2961
as(S'ancient'
p2962
S'beings,'
p2963
tp2964
(lp2965
S'and'
p2966
as(g1038
S'tinted'
p2967
tp2968
(lp2969
S'marble,'
p2970
as(g2309
g448
tp2971
(lp2972
g449
as(g2478
S'because'
p2973
tp2974
(lp2975
S'they'
p2976
as(S'strokes'
p2977
S'the'
p2978
tp2979
(lp2980
S'sign'
p2981
as(S'many'
p2982
g2818
tp2983
(lp2984
g2546
as(S'among'
p2985
S'them,'
p2986
tp2987
(lp2988
S'wherein'
p2989
as(g491
g494
tp2990
(lp2991
S'the'
p2992
as(S'Over'
p2993
g728
tp2994
(lp2995
g729
as(S'ancient'
p2996
g2217
tp2997
(lp2998
g1077
as(g1668
g1988
tp2999
(lp3000
S'the'
p3001
aS'the'
p3002
aS'the'
p3003
as(S'beyond.'
p3004
S'So'
p3005
tp3006
(lp3007
S'Sarnath'
p3008
as(S'a'
S'bright'
p3009
tp3010
(lp3011
S'multi-colored'
p3012
as(S'dwelt'
p3013
S'fifty'
p3014
tp3015
(lp3016
g2393
as(g126
g1306
tp3017
(lp3018
g1307
as(g1478
g1481
tp3019
(lp3020
S'a'
as(g2101
g2104
tp3021
(lp3022
g2935
as(S'might'
p3023
S'pass'
p3024
tp3025
(lp3026
g2508
as(S'a'
S'green'
p3027
tp3028
(lp3029
S'stone'
p3030
as(g51
g524
tp3031
(lp3032
g525
as(g2454
g1051
tp3033
(lp3034
g1052
as(S'rushes'
p3035
g2140
tp3036
(lp3037
g2141
as(g758
g761
tp3038
(lp3039
g453
as(S'crystal'
p3040
S'lakelet.'
p3041
tp3042
(lp3043
S'With'
p3044
as(S'thought'
p3045
S'it'
p3046
tp3047
(lp3048
g408
as(g2715
g2390
tp3049
(lp3050
g1430
as(S'their'
p3051
S'paws'
p3052
tp3053
(lp3054
S'golden'
p3055
as(g1064
g2839
tp3056
(lp3057
S'metals'
p3058
as(S'they'
p3059
S'worshipped'
p3060
tp3061
(lp3062
S'a'
as(g1970
S'and'
p3063
tp3064
(lp3065
S'flanked'
p3066
as(g753
g756
tp3067
(lp3068
S'of'
p3069
as(S'all'
p3070
S'mankind.'
p3071
tp3072
(lp3073
S'Where'
p3074
as(g2785
S'they'
p3075
tp3076
(lp3077
S'beheld'
p3078
as(g1201
g1204
tp3079
(lp3080
g2600
aS'altar'
p3081
aS'altar'
p3082
aS'mist-begetting'
p3083
as(S'their'
p3084
S'tongues'
p3085
tp3086
(lp3087
S'were'
p3088
as(S'shadows'
p3089
S'that'
p3090
tp3091
(lp3092
S'descended'
p3093
as(g2126
S'it;'
p3094
tp3095
(lp3096
S'that'
p3097
as(g659
g2440
tp3098
(lp3099
S'how'
p3100
as(g2076
g468
tp3101
(lp3102
g469
as(g2065
S'pavilions'
p3103
tp3104
(lp3105
S'and'
p3106
as(g1078
g1081
tp3107
(lp3108
S'Bokrug,'
p3109
aS'Bokrug,'
p3110
as(S'earth'
p3111
S'were'
p3112
tp3113
(lp3114
S'exchanged'
p3115
as(g212
S'spears,'
p3116
tp3117
(lp3118
S'because'
p3119
as(S'rest,'
p3120
S'pushed'
p3121
tp3122
(lp3123
S'on'
p3124
as(S'with'
p3125
S'fresh'
p3126
tp3127
(lp3128
S'odorous'
p3129
as(g1939
S'pleasure'
p3130
tp3131
(lp3132
S'of'
p3133
as(g781
g1819
tp3134
(lp3135
S'the'
p3136
as(g2616
g2619
tp3137
(lp3138
g2635
as(S'had'
p3139
g1440
tp3140
(lp3141
g1441
as(S'high-priests'
p3142
S'in'
p3143
tp3144
(lp3145
S'Sarnath'
p3146
as(g2529
g2532
tp3147
(lp3148
g3059
as(g2130
g2133
tp3149
(lp3150
g3084
as(S'naught'
p3151
g800
tp3152
(lp3153
g801
as(g654
g941
tp3154
(lp3155
S'it'
p3156
as(g799
S'festivals,'
p3157
tp3158
(lp3159
g1233
as(S'by'
p3160
g2154
tp3161
(lp3162
g2155
as(S'high'
p3163
S'were'
p3164
tp3165
(lp3166
S'they'
p3167
as(g1914
S'water-lizard.'
p3168
tp3169
(lp3170
g2657
as(g1877
g1880
tp3171
(lp3172
S'the'
p3173
as(S'lying'
p3174
g1404
tp3175
(lp3176
g1405
as(S'secret'
p3177
S'rite'
p3178
tp3179
(lp3180
S'in'
p3181
as(g350
g353
tp3182
(lp3183
g509
as(g105
S'a'
tp3184
(lp3185
g3027
as(S'king'
p3186
S'and'
p3187
tp3188
(lp3189
S'his'
p3190
as(g3085
g3088
tp3191
(lp3192
g1150
as(S'And'
p3193
S'in'
p3194
tp3195
(lp3196
S'most'
p3197
as(S'of'
p3198
S'Ilarnek'
p3199
tp3200
(lp3201
g1313
aS'and'
p3202
as(g622
S'it'
p3203
tp3204
(lp3205
S'drew'
p3206
aS'awaited'
p3207
as(g1608
g2015
tp3208
(lp3209
S'beings'
p3210
ag163
aS'gray'
p3211
aS'princes'
p3212
as(g1697
S'the'
p3213
tp3214
(lp3215
S'moon'
p3216
as(S'Akurion,'
p3217
S'which'
p3218
tp3219
(lp3220
g1348
as(S'also'
p3221
S'into'
p3222
tp3223
(lp3224
S'the'
p3225
as(S'in'
p3226
g1593
tp3227
(lp3228
g1243
as(g836
g839
tp3229
(lp3230
g2279
as(g76
S'young,'
p3231
tp3232
(lp3233
g529
as(g1073
g1076
tp3234
(lp3235
S'as'
p3236
aS'because'
p3237
as(g2186
S'proof.'
p3238
tp3239
(lp3240
S'Men'
p3241
as(g1447
g2011
tp3242
(lp3243
S'the'
p3244
aS'the'
p3245
as(S'like'
p3246
g2346
tp3247
(lp3248
g908
as(S'of'
p3249
g669
tp3250
(lp3251
g670
aS'hues,'
p3252
as(g2283
S'a'
tp3253
(lp3254
g2332
aS'mighty'
p3255
ag2653
as(S'shrines'
p3256
g2016
tp3257
(lp3258
g2017
as(g2324
g297
tp3259
(lp3260
g298
as(S'that'
p3261
g823
tp3262
(lp3263
g824
as(S'is'
p3264
g3151
tp3265
(lp3266
g800
as(g3206
g1726
tp3267
(lp3268
g1727
as(g1293
S'And'
p3269
tp3270
(lp3271
S'the'
p3272
as(S'greatly.'
p3273
g2605
tp3274
(lp3275
g2606
as(g2159
g2162
tp3276
(lp3277
g2996
as(g2091
S'in'
p3278
tp3279
(lp3280
S'the'
p3281
as(S'was'
p3282
g2737
tp3283
(lp3284
g2738
as(g1281
g1284
tp3285
(lp3286
g67
as(S'were'
p3287
g2413
tp3288
(lp3289
S'many'
p3290
as(S'where'
p3291
S'through'
p3292
tp3293
(lp3294
g903
as(S'golden'
p3295
g1609
tp3296
(lp3297
g1610
as(g3290
S'strange'
p3298
tp3299
(lp3300
g391
as(g1742
g1745
tp3301
(lp3302
S'neighboring'
p3303
aS'Ilarnek'
p3304
as(S'gods'
p3305
S'was'
p3306
tp3307
(lp3308
S'derided'
p3309
as(g1132
g1135
tp3310
(lp3311
S'the'
p3312
as(S'there'
p3313
S'were'
p3314
tp3315
(lp3316
S'many'
p3317
aS'likewise'
p3318
ag1317
aS'many'
p3319
aS'an'
p3320
as(S'set'
p3321
S'with'
p3322
tp3323
(lp3324
g131
aS'rubies'
p3325
as(g2611
g2614
tp3326
(lp3327
g1649
as(g1030
g1033
tp3328
(lp3329
S'departing.'
p3330
as(S'by'
p3331
g2769
tp3332
(lp3333
g2770
as(g1234
g1237
tp3334
(lp3335
g2683
as(g34
g37
tp3336
(lp3337
g2134
as(g3116
g3119
tp3338
(lp3339
S'they'
p3340
as(g1973
g2809
tp3341
(lp3342
g2727
as(S'and'
p3343
S'porphyry.'
p3344
tp3345
(lp3346
S'And'
p3347
as(g104
g212
tp3348
(lp3349
g3116
as(g2776
S'among'
p3350
tp3351
(lp3352
S'men.'
p3353
as(g902
S'Zokkar.'
p3354
tp3355
(lp3356
S'And'
p3357
as(g3309
g3331
tp3358
(lp3359
g2769
as(S'after'
p3360
S'it'
p3361
tp3362
(lp3363
g2482
as(g1632
S'a'
tp3364
(lp3365
S'throne'
p3366
as(g1025
S'Sarnath,'
p3367
tp3368
(lp3369
S'but'
p3370
ag1710
ag1193
aS'whose'
p3371
as(g2123
g2126
tp3372
(lp3373
g3094
as(g2106
g2109
tp3374
(lp3375
S'discovered'
p3376
aS'the'
p3377
as(g3244
g3081
tp3378
(lp3379
g7
aS'of'
p3380
aS'of'
p3381
as(g46
S'and'
p3382
tp3383
(lp3384
S'the'
p3385
as(S'were'
p3386
g1289
tp3387
(lp3388
g1290
as(S'and'
p3389
S'slaves,'
p3390
tp3391
(lp3392
S'but'
p3393
as(g3207
g1501
tp3394
(lp3395
g660
as(g3354
g3357
tp3396
(lp3397
S'the'
p3398
as(g756
g3069
tp3399
(lp3400
g985
as(S'saw'
p3401
S'the'
p3402
tp3403
(lp3404
g3089
aS'gray'
p3405
as(g1297
S'is'
p3406
tp3407
(lp3408
g2901
ag2205
aS'also'
p3409
as(S'of'
p3410
g2931
tp3411
(lp3412
g2674
as(g1494
S'lake,'
p3413
tp3414
(lp3415
g1587
ag2732
aS'each'
p3416
aS'and'
p3417
as(g1151
g1154
tp3418
(lp3419
g1425
as(S'warriors'
p3420
S'took'
p3421
tp3422
(lp3423
S'back'
p3424
as(g2943
g2946
tp3425
(lp3426
S'on'
p3427
as(g2297
S'all'
p3428
tp3429
(lp3430
S'the'
p3431
as(S'spread'
p3432
S'the'
p3433
tp3434
(lp3435
S'tales'
p3436
as(S'gods'
p3437
S'of'
p3438
tp3439
(lp3440
S'Sarnath,'
p3441
as(S'gods'
p3442
S'were'
p3443
tp3444
(lp3445
S'those'
p3446
as(g579
g582
tp3447
(lp3448
S'as'
p3449
ag2818
as(S'Sarnath'
p3450
g2201
tp3451
(lp3452
g2202
as(g3063
g3066
tp3453
(lp3454
g1108
as(g2656
g679
tp3455
(lp3456
g680
as(g101
S'and'
p3457
tp3458
(lp3459
S'peopled'
p3460
aS'the'
p3461
as(S'all'
p3462
S'others'
p3463
tp3464
(lp3465
S'was'
p3466
as(S'a'
S'vast'
p3467
tp3468
(lp3469
S'still'
p3470
as(g1967
S'Rokol'
p3471
tp3472
(lp3473
S'took'
p3474
as(S'of'
p3475
S'stones'
p3476
tp3477
(lp3478
g2561
as(S'lake'
p3479
g107
tp3480
(lp3481
S'mighty'
p3482
as(S'the'
p3483
S'distant'
p3484
tp3485
(lp3486
S'hills'
p3487
as(g2773
S'crowned'
p3488
tp3489
(lp3490
S'with'
p3491
as(g1944
g1970
tp3492
(lp3493
g3063
as(S'certain'
p3494
S'tribes,'
p3495
tp3496
(lp3497
S'more'
p3498
as(S'this'
p3499
g1841
tp3500
(lp3501
g1842
as(g1842
g1845
tp3502
(lp3503
g2528
as(S'spring.'
p3504
S'There'
p3505
tp3506
(lp3507
S'ran'
p3508
as(S'ancient'
p3509
S'wine'
p3510
tp3511
(lp3512
S'from'
p3513
as(g1613
S'the'
p3514
tp3515
(lp3516
g2495
aS'altar'
p3517
as(g3303
S'lands'
p3518
tp3519
(lp3520
g628
as(g2418
g2421
tp3521
(lp3522
S'nuts'
p3523
as(g1368
g1973
tp3524
(lp3525
g2809
as(g583
S'thrones'
p3526
tp3527
(lp3528
g2950
as(S'have'
p3529
g2699
tp3530
(lp3531
g2700
as(g68
g71
tp3532
(lp3533
g320
as(g1089
g1092
tp3534
(lp3535
g1280
as(g293
g296
tp3536
(lp3537
S'the'
p3538
as(g1379
g1382
tp3539
(lp3540
g2325
as(g1709
g694
tp3541
(lp3542
g695
ag3390
as(g1906
g1909
tp3543
(lp3544
S'the'
p3545
as(S'the'
p3546
g2455
tp3547
(lp3548
S'year'
p3549
as(S'and'
p3550
S'Tamash'
p3551
tp3552
(lp3553
g2082
aS'and'
p3554
as(g1805
g1808
tp3555
(lp3556
S'lights'
p3557
as(S'his'
p3558
g1573
tp3559
(lp3560
g1574
as(g2919
g1873
tp3561
(lp3562
g1762
as(S'pushing'
p3563
S'the'
p3564
tp3565
(lp3566
g2829
as(S'and'
p3567
g33
tp3568
(lp3569
g34
as(S'its'
p3570
S'walls,'
p3571
tp3572
(lp3573
g1435
as(S'world'
p3574
S'yet'
p3575
tp3576
(lp3577
g184
as(S'they'
p3578
S'found'
p3579
tp3580
(lp3581
S'the'
p3582
aS'the'
p3583
as(g645
S'and'
p3584
tp3585
(lp3586
S'camels'
p3587
aS'camels'
p3588
aS'camels'
p3589
as(S'hued'
p3590
S'lakelets'
p3591
tp3592
(lp3593
S'into'
p3594
as(g1357
S'Sarnath.'
p3595
tp3596
(lp3597
S'Thereafter'
p3598
as(g2069
g1482
tp3599
(lp3600
g472
as(g3071
g3074
tp3601
(lp3602
S'once'
p3603
as(g2867
g435
tp3604
(lp3605
g436
as(g1964
S'As'
p3606
tp3607
(lp3608
S'the'
p3609
as(S'lake'
p3610
S'that'
p3611
tp3612
(lp3613
g1555
as(S'books'
p3614
g2500
tp3615
(lp3616
g2501
as(g2707
g2710
tp3617
(lp3618
S'in'
p3619
as(S'Ilarnek,'
p3620
S'and'
p3621
tp3622
(lp3623
g1343
aS'Kadetheron,'
p3624
as(g959
S'who'
p3625
tp3626
(lp3627
g2040
aS'had'
p3628
as(S'throughout'
p3629
S'the'
p3630
tp3631
(lp3632
S'land'
p3633
as(g2864
g2867
tp3634
(lp3635
g435
aS'builded,'
p3636
ag286
aS'that'
p3637
as(S'a'
S'terrible'
p3638
tp3639
(lp3640
g1790
as(g214
g217
tp3641
(lp3642
S'in'
p3643
as(S'the'
p3644
g2443
tp3645
(lp3646
g2340
aS'of'
p3647
aS'of'
p3648
as(g61
S'and'
p3649
tp3650
(lp3651
S'Ilarnek'
p3652
as(g876
g879
tp3653
(lp3654
S'last'
p3655
as(g282
g285
tp3656
(lp3657
S'of'
p3658
as(g43
g46
tp3659
(lp3660
g3382
as(g2584
g2587
tp3661
(lp3662
S'above'
p3663
as(S'bright'
p3664
S'pebbles,'
p3665
tp3666
(lp3667
S'dividing'
p3668
as(S'horde'
p3669
S'of'
p3670
tp3671
(lp3672
g1577
as(S'viands'
p3673
S'were'
p3674
tp3675
(lp3676
S'the'
p3677
as(g407
S'Outshining'
p3678
tp3679
(lp3680
g3462
as(S'the'
p3681
g1890
tp3682
(lp3683
g1891
as(S'symbol'
p3684
S'of'
p3685
tp3686
(lp3687
g591
as(g2808
S'were'
p3688
tp3689
(lp3690
S'the'
p3691
as(g269
S'things.'
p3692
tp3693
(lp3694
S'Lofty'
p3695
as(g2882
g2263
tp3696
(lp3697
g2264
as(S'mosaics'
p3698
g1662
tp3699
(lp3700
g1663
as(g3121
g3124
tp3701
(lp3702
S'to'
p3703
as(S'hair'
p3704
S'and'
p3705
tp3706
(lp3707
S'blue'
p3708
as(g2609
S'marveling'
p3709
tp3710
(lp3711
g2032
as(g1887
g199
tp3712
(lp3713
g200
as(g2033
g2036
tp3714
(lp3715
S'for'
p3716
as(g2661
g3420
tp3717
(lp3718
g3421
as(g2757
g2760
tp3719
(lp3720
S'the'
p3721
as(g3090
g3093
tp3722
(lp3723
S'from'
p3724
as(g2457
g1174
tp3725
(lp3726
S'the'
p3727
as(S'ancient'
p3728
g2245
tp3729
(lp3730
g2766
as(g336
S'a'
tp3731
(lp3732
g2053
as(S'not'
p3733
g233
tp3734
(lp3735
S'the'
p3736
as(g2967
g2970
tp3737
(lp3738
g2815
as(S'the'
p3739
g955
tp3740
(lp3741
g956
as(S'of'
p3742
g1773
tp3743
(lp3744
g1774
as(g2365
S'centuries'
p3745
tp3746
(lp3747
S'came'
p3748
as(g1966
S'elder'
p3749
tp3750
(lp3751
g3305
as(g3190
g1824
tp3752
(lp3753
g1825
ag3389
as(S'the'
p3754
S'olden'
p3755
tp3756
(lp3757
g1550
ag952
as(S'shaky'
p3758
g2977
tp3759
(lp3760
g2978
as(g155
g1940
tp3761
(lp3762
g1941
as(g1290
g1293
tp3763
(lp3764
g3269
as(S'strange'
p3765
S'art'
p3766
tp3767
(lp3768
S'were'
p3769
as(g2837
S'and'
p3770
tp3771
(lp3772
g2251
as(S'it'
p3773
g2489
tp3774
(lp3775
g1131
as(g777
g780
tp3776
(lp3777
S'of'
p3778
as(g83
g1002
tp3779
(lp3780
g809
as(S'the'
p3781
g2446
tp3782
(lp3783
S'flowers.'
p3784
as(g3306
g3309
tp3785
(lp3786
g3331
as(g147
g150
tp3787
(lp3788
g382
as(g3376
S'fire,'
p3789
tp3790
(lp3791
S'and'
p3792
as(g2367
g2370
tp3793
(lp3794
g2406
as(g2426
g2444
tp3795
(lp3796
g1716
as(S'its'
p3797
g260
tp3798
(lp3799
g261
as(S'beds'
p3800
S'of'
p3801
tp3802
(lp3803
g3781
as(S'platters'
p3804
g3321
tp3805
(lp3806
g3322
aS'with'
p3807
as(g1735
g2590
tp3808
(lp3809
S'and'
p3810
as(S'in'
p3811
S'those'
p3812
tp3813
(lp3814
g2174
as(S'one'
p3815
g291
tp3816
(lp3817
S'swear'
p3818
aS'rest'
p3819
as(g3377
S'young'
p3820
tp3821
(lp3822
g1519
ag3420
as(g2875
g2000
tp3823
(lp3824
g2001
as(S'swimmers'
p3825
g265
tp3826
(lp3827
g266
as(g3083
S'lake'
p3828
tp3829
(lp3830
S'and'
p3831
as(g3619
S'Mnar.'
p3832
tp3833
(lp3834
S'But'
p3835
as(g769
g1974
tp3836
(lp3837
g1975
as(g2044
S'odd'
p3838
tp3839
(lp3840
g2962
as(S'that'
p3841
S'only'
p3842
tp3843
(lp3844
g2312
as(S'other'
p3845
S'choice'
p3846
tp3847
(lp3848
g2642
as(g896
g899
tp3849
(lp3850
g1747
aS'by'
p3851
as(g582
g3449
tp3852
(lp3853
g960
as(S'less'
p3854
S'because'
p3855
tp3856
(lp3857
g3578
as(S'had'
p3858
g3013
tp3859
(lp3860
g3014
as(g3584
g3587
tp3861
(lp3862
S'and'
p3863
aS'and'
p3864
aS'and'
p3865
as(g789
g1500
tp3866
(lp3867
S'who'
p3868
as(g1298
S'was'
p3869
tp3870
(lp3871
S'long'
p3872
as(g879
g3655
tp3873
(lp3874
S'of'
p3875
as(S'who'
p3876
S'are'
p3877
tp3878
(lp3879
g1905
as(S'walls'
p3880
g1741
tp3881
(lp3882
g1742
as(S'and'
p3883
S'where'
p3884
tp3885
(lp3886
S'once'
p3887
as(g291
g3818
tp3888
(lp3889
g765
as(g238
g3797
tp3890
(lp3891
g260
as(g617
g1327
tp3892
(lp3893
S'whence'
p3894
as(g2555
g2558
tp3895
(lp3896
g2
as(g457
g1960
tp3897
(lp3898
g1961
as(g3838
g2962
tp3899
(lp3900
g2963
as(g85
S'a'
tp3901
(lp3902
g773
as(g2595
S'waters'
p3903
tp3904
(lp3905
S'about'
p3906
as(g3835
S'on'
p3907
tp3908
(lp3909
S'the'
p3910
as(g399
g402
tp3911
(lp3912
g1582
as(g378
g381
tp3913
(lp3914
g614
as(S'skilfully'
p3915
S'wafted'
p3916
tp3917
(lp3918
g3160
as(g235
g238
tp3919
(lp3920
g3797
as(g2539
g2542
tp3921
(lp3922
g2798
as(S'the'
p3923
S'appointed'
p3924
tp3925
(lp3926
S'night'
p3927
as(S'not'
p3928
S'clear.'
p3929
tp3930
(lp3931
g386
as(g1052
g1055
tp3932
(lp3933
S'was'
p3934
as(S'rock'
p3935
g1614
tp3936
(lp3937
g1615
ag2583
as(S'down'
p3938
S'and'
p3939
tp3940
(lp3941
S'folded'
p3942
as(S'brick'
p3943
S'cylinders'
p3944
tp3945
(lp3946
g1604
as(S'the'
p3947
g2780
tp3948
(lp3949
g349
as(S'written'
p3950
S'that'
p3951
tp3952
(lp3953
g2095
as(g796
g799
tp3954
(lp3955
g3157
as(g2521
g2524
tp3956
(lp3957
S'fancy'
p3958
as(g1897
S'temple,'
p3959
tp3960
(lp3961
S'a'
as(S'the'
p3962
S'detestable'
p3963
tp3964
(lp3965
S'water-lizard.'
p3966
as(g3820
g1519
tp3967
(lp3968
g1520
as(S'palate'
p3969
S'of'
p3970
tp3971
(lp3972
g1864
as(g1915
S'water-lizard?'
p3973
tp3974
(lp3975
S'And'
p3976
as(g3695
g2876
tp3977
(lp3978
g2877
as(g2918
g2304
tp3979
(lp3980
g2305
as(g1354
g1357
tp3981
(lp3982
g3595
as(g2537
S'in'
p3983
tp3984
(lp3985
S'the'
p3986
as(g2473
S'like'
p3987
tp3988
(lp3989
S'the'
p3990
as(g3112
g3115
tp3991
(lp3992
S'for'
p3993
as(g1603
g3377
tp3994
(lp3995
g3820
as(g3074
g3603
tp3996
(lp3997
g2284
as(g1136
g1139
tp3998
(lp3999
S'stone'
p4000
aS'city'
p4001
ag2601
ag864
aS'rock'
p4002
ag3935
aS'rock'
p4003
as(g3591
g3594
tp4004
(lp4005
S'which'
p4006
as(S'armies'
p4007
g2628
tp4008
(lp4009
g2179
as(S'they'
p4010
g368
tp4011
(lp4012
g369
as(g121
S'prized'
p4013
tp4014
(lp4015
S'of'
p4016
as(S'kings'
p4017
g2885
tp4018
(lp4019
g2886
as(g3319
S'small'
p4020
tp4021
(lp4022
g3256
as(S'touch'
p4023
g3475
tp4024
(lp4025
g3476
as(g2236
S'and'
p4026
tp4027
(lp4028
S'knows'
p4029
as(S'concealed'
p4030
S'fires,'
p4031
tp4032
(lp4033
S'so'
p4034
as(S'border'
p4035
S'of'
p4036
tp4037
(lp4038
S'the'
p4039
as(S'exceedingly,'
p4040
S'so'
p4041
tp4042
(lp4043
g3841
as(g2111
g2114
tp4044
(lp4045
S'he'
p4046
as(S'And'
p4047
g3494
tp4048
(lp4049
g3495
as(g2787
g2790
tp4050
(lp4051
g3698
as(g4020
g3256
tp4052
(lp4053
g2016
as(S'beneath'
p4054
g478
tp4055
(lp4056
g479
as(g1740
g3563
tp4057
(lp4058
g3564
as(g219
g222
tp4059
(lp4060
g3962
as(g1118
S'close'
p4061
tp4062
(lp4063
g485
as(S'of'
p4064
g3295
tp4065
(lp4066
g1609
as(g2542
g2798
tp4067
(lp4068
g2799
as(g3156
g3207
tp4069
(lp4070
g1501
as(g1763
g1766
tp4071
(lp4072
S'chalcedony,'
p4073
as(g4029
g917
tp4074
(lp4075
g918
as(g2475
g2478
tp4076
(lp4077
g2973
as(g3924
g3927
tp4078
(lp4079
g1267
as(S'Ai.'
p4080
g4047
tp4081
(lp4082
g3494
as(g2961
g1370
tp4083
(lp4084
g1371
aS'the'
p4085
as(g3748
S'and'
p4086
tp4087
(lp4088
S'went,'
p4089
as(g355
g358
tp4090
(lp4091
S'and'
p4092
as(g2939
g1633
tp4093
(lp4094
g1176
as(g3115
g3993
tp4095
(lp4096
S'other'
p4097
as(g3966
S'Not'
p4098
tp4099
(lp4100
S'even'
p4101
as(g1855
g1858
tp4102
(lp4103
g3246
as(g3716
S'they'
p4104
tp4105
(lp4106
g3045
as(g1499
g3174
tp4107
(lp4108
g1404
as(g2445
g2786
tp4109
(lp4110
g2787
as(g2915
g1331
tp4111
(lp4112
g1332
as(g623
g928
tp4113
(lp4114
S'the'
p4115
as(g1750
g3754
tp4116
(lp4117
g3755
aS'olden'
p4118
as(g3789
g3792
tp4119
(lp4120
S'thereafter'
p4121
as(g2083
g2086
tp4122
(lp4123
S'chief'
p4124
as(g4061
g485
tp4125
(lp4126
g486
ag3681
as(g2896
S'it'
p4127
tp4128
(lp4129
S'was'
p4130
aS'was'
p4131
as(g1057
g1060
tp4132
(lp4133
g3800
as(g2913
g2318
tp4134
(lp4135
g2319
as(S'were'
p4136
g3318
tp4137
(lp4138
S'fountains,'
p4139
as(g685
g688
tp4140
(lp4141
S'wandering'
p4142
as(g1324
g2339
tp4143
(lp4144
g3773
as(g3100
S'ever'
p4145
tp4146
(lp4147
S'the'
p4148
as(g1010
g2579
tp4149
(lp4150
g4007
as(g2188
g2191
tp4151
(lp4152
S'the'
p4153
as(S'gibbous.'
p4154
S'And'
p4155
tp4156
(lp4157
S'it'
p4158
as(g3393
S'a'
tp4159
(lp4160
g3669
as(S'With'
p4161
g2863
tp4162
(lp4163
g2864
as(g2978
g2981
tp4164
(lp4165
g1687
as(g971
g1936
tp4166
(lp4167
g2985
as(g1645
g1648
tp4168
(lp4169
S'lay'
p4170
as(S'many'
p4171
g3252
tp4172
(lp4173
S'and'
p4174
as(g4000
S'city'
p4175
tp4176
(lp4177
S'of'
p4178
aS'Ib.'
p4179
as(g729
g732
tp4180
(lp4181
g858
as(g3688
g3691
tp4182
(lp4183
S'palaces'
p4184
aS'pillars'
p4185
aS'seventeen'
p4186
aS'gardens'
p4187
ag544
ag3590
aS'great'
p4188
as(g1527
g980
tp4189
(lp4190
g981
as(g1048
S'of'
p4191
tp4192
(lp4193
S'the'
p4194
as(g2989
g1767
tp4195
(lp4196
g1768
as(g535
g538
tp4197
(lp4198
g1846
aS'the'
p4199
as(g3143
g3146
tp4200
(lp4201
S'but'
p4202
ag157
aS'the'
p4203
as(g2653
g2656
tp4204
(lp4205
g679
as(g182
g1279
tp4206
(lp4207
S'lions'
p4208
as(g17
g2129
tp4209
(lp4210
g2130
as(g1737
g1740
tp4211
(lp4212
g3563
as(g668
S'was'
p4213
tp4214
(lp4215
g4154
as(g3692
g3695
tp4216
(lp4217
g2876
as(g3625
g2040
tp4218
(lp4219
g2041
aS'fled'
p4220
as(S'and'
p4221
S'stupefying'
p4222
tp4223
(lp4224
S'to'
p4225
as(g610
S'these'
p4226
tp4227
(lp4228
g3221
as(g2252
g2255
tp4229
(lp4230
g1931
as(g661
g664
tp4231
(lp4232
g1992
as(g1352
S'rear'
p4233
tp4234
(lp4235
S'high'
p4236
as(g3549
S'of'
p4237
tp4238
(lp4239
S'the'
p4240
as(g3320
S'untold'
p4241
tp4242
(lp4243
g2187
as(g2401
S'world,'
p4244
tp4245
(lp4246
S'even'
p4247
as(g3044
g3765
tp4248
(lp4249
g3766
as(g385
S'ancient'
p4250
tp4251
(lp4252
S'idol'
p4253
as(g1109
g1112
tp4254
(lp4255
S'of'
p4256
as(S'swiftly,'
p4257
S'so'
p4258
tp4259
(lp4260
S'that'
p4261
as(g494
g2992
tp4262
(lp4263
S'waves'
p4264
as(S'high-priests'
p4265
g1772
tp4266
(lp4267
g885
as(g3611
g1555
tp4268
(lp4269
g1556
as(g3963
g3966
tp4270
(lp4271
g4098
as(g4092
g3614
tp4272
(lp4273
g2500
as(g1185
g1188
tp4274
(lp4275
g1644
as(g3390
g3393
tp4276
(lp4277
S'a'
as(S'the'
p4278
g3120
tp4279
(lp4280
g3121
as(S'even'
p4281
g1395
tp4282
(lp4283
g1396
as(S'the'
p4284
S'waters'
p4285
tp4286
(lp4287
S'of'
p4288
as(g2460
g2463
tp4289
(lp4290
g2492
as(g1581
S'things'
p4291
tp4292
(lp4293
S'with'
p4294
as(g4139
g2591
tp4295
(lp4296
g2592
as(S'men'
p4297
g1119
tp4298
(lp4299
g1120
as(g2086
g4124
tp4300
(lp4301
g3437
as(g2862
S'were'
p4302
tp4303
(lp4304
g2742
ag1478
aS'heated'
p4305
as(g2673
S'a'
tp4306
(lp4307
g127
as(S'piece'
p4308
g47
tp4309
(lp4310
g48
as(S'the'
p4311
g3673
tp4312
(lp4313
g3674
as(g2164
g1400
tp4314
(lp4315
g1401
as(g2545
g2232
tp4316
(lp4317
g2233
as(g1449
S'from'
p4318
tp4319
(lp4320
g2750
as(g1174
g3727
tp4321
(lp4322
g1460
as(S'the'
p4323
S'immemorial'
p4324
tp4325
(lp4326
g922
as(g353
g509
tp4327
(lp4328
g510
as(S'and'
p4329
g743
tp4330
(lp4331
g744
as(S'side'
p4332
S'toward'
p4333
tp4334
(lp4335
S'the'
p4336
as(g4202
g2947
tp4337
(lp4338
g782
as(S'not'
p4339
S'much'
p4340
tp4341
(lp4342
S'is'
p4343
as(g3944
g1604
tp4344
(lp4345
g1605
as(g2844
g1660
tp4346
(lp4347
g3432
as(S'the'
p4348
g254
tp4349
(lp4350
g255
aS'and'
p4351
as(g525
g528
tp4352
(lp4353
S'there'
p4354
as(g1266
g2673
tp4355
(lp4356
S'a'
as(S'coarse'
p4357
g3758
tp4358
(lp4359
g2977
as(S'once'
p4360
S'a'
tp4361
(lp4362
g399
as(g3075
g3078
tp4363
(lp4364
S'not'
p4365
as(g1894
S'all'
p4366
tp4367
(lp4368
g136
as(S'walls'
p4369
S'beheld'
p4370
tp4371
(lp4372
S'strange'
p4373
as(g2601
g2604
tp4374
(lp4375
S'Ib,'
p4376
aS'Ib'
p4377
as(g1544
g88
tp4378
(lp4379
g89
as(g640
g3237
tp4380
(lp4381
S'they'
p4382
as(g135
g2212
tp4383
(lp4384
S'the'
p4385
as(g3903
g3906
tp4386
(lp4387
S'in'
p4388
as(S'the'
p4389
g534
tp4390
(lp4391
g535
as(g382
g385
tp4392
(lp4393
g4250
as(S'the'
p4394
S'gibbous'
p4395
tp4396
(lp4397
S'moon'
p4398
aS'moon'
p4399
as(g2116
g2119
tp4400
(lp4401
g4257
as(g1412
S'yellow'
p4402
tp4403
(lp4404
g3704
as(g1125
g1128
tp4405
(lp4406
g2927
as(g2015
g3210
tp4407
(lp4408
S'of'
p4409
aS'of'
p4410
aS'of'
p4411
ag597
as(S'with'
p4412
g2849
tp4413
(lp4414
g2850
as(g3476
g2561
tp4415
(lp4416
g2562
as(S'halls'
p4417
S'as'
p4418
tp4419
(lp4420
S'vast'
p4421
as(g2099
S'night'
p4422
tp4423
(lp4424
S'from'
p4425
as(g1534
S'of'
p4426
tp4427
(lp4428
g4171
ag3354
as(g4373
S'lights'
p4429
tp4430
(lp4431
S'on'
p4432
as(g4097
g1093
tp4433
(lp4434
g1094
as(g3126
g3129
tp4435
(lp4436
S'breezes'
p4437
as(g734
g737
tp4438
(lp4439
S'the'
p4440
as(S'the'
p4441
g2167
tp4442
(lp4443
g2168
as(S'the'
p4444
g2843
tp4445
(lp4446
S'green'
p4447
as(g1302
g1305
tp4448
(lp4449
S'out'
p4450
as(g1068
g1071
tp4451
(lp4452
S'merriment'
p4453
as(g4437
g3915
tp4454
(lp4455
g3916
as(S'and'
p4456
g1363
tp4457
(lp4458
S'precious'
p4459
as(g1273
g1276
tp4460
(lp4461
g3004
as(g1439
S'hundred'
p4462
tp4463
(lp4464
S'cubits'
p4465
aS'cubits'
p4466
as(g3579
g3582
tp4467
(lp4468
g596
ag2167
aS'vast'
p4469
as(g2109
g3376
tp4470
(lp4471
g3789
as(g4178
g2072
tp4472
(lp4473
g2073
aS'for'
p4474
aS'and'
p4475
ag1682
as(g2162
g2996
tp4476
(lp4477
g2217
as(g624
g627
tp4478
(lp4479
g2625
as(g1627
g3083
tp4480
(lp4481
g3828
as(g4291
g4294
tp4482
(lp4483
S'bulging'
p4484
as(S'happened,'
p4485
S'for'
p4486
tp4487
(lp4488
g2620
as(g3344
g3347
tp4489
(lp4490
S'there'
p4491
as(g2632
g2237
tp4492
(lp4493
g2238
as(g4236
S'above'
p4494
tp4495
(lp4496
g562
aS'it'
p4497
as(g513
g2459
tp4498
(lp4499
g2460
as(g1262
S'their'
p4500
tp4501
(lp4502
S'walls'
p4503
as(g3986
g2686
tp4504
(lp4505
g2687
as(g3685
g591
tp4506
(lp4507
g592
as(g533
S'men'
p4508
tp4509
(lp4510
g2914
aS'of'
p4511
aS'of'
p4512
as(S'a'
S'thousand'
p4513
tp4514
(lp4515
S'years'
p4516
as(g3636
g588
tp4517
(lp4518
g495
as(g2932
g4475
tp4519
(lp4520
S'as'
p4521
as(g4399
g3629
tp4522
(lp4523
g3630
as(S'a'
S'pair'
p4524
tp4525
(lp4526
g4064
as(S'fear'
p4527
g2115
tp4528
(lp4529
g2116
as(g3231
g529
tp4530
(lp4531
g530
as(g2381
g2384
tp4532
(lp4533
g3483
as(g1578
g1581
tp4534
(lp4535
g4291
as(g3060
S'a'
tp4536
(lp4537
g1285
as(S'metals'
p4538
g2756
tp4539
(lp4540
g2757
as(g3488
g3491
tp4541
(lp4542
S'roses'
p4543
as(g1556
g1559
tp4544
(lp4545
g2029
as(g1305
g4450
tp4546
(lp4547
S'over'
p4548
as(g1823
g84
tp4549
(lp4550
g85
as(g2325
g2328
tp4551
(lp4552
S'to'
p4553
as(g3505
g3508
tp4554
(lp4555
S'little'
p4556
as(g1978
S'on'
p4557
tp4558
(lp4559
S'the'
p4560
as(S'zircon'
p4561
S'was'
p4562
tp4563
(lp4564
S'the'
p4565
as(g2341
g244
tp4566
(lp4567
g245
as(g2614
g1649
tp4568
(lp4569
g1650
ag4324
aS'likeness'
p4570
ag2309
ag1485
ag4244
aS'land'
p4571
ag1044
aS'likeness'
p4572
ag3959
ag112
ag1258
aS'lake,'
p4573
ag1089
aS'land'
p4574
ag2686
aS'towers'
p4575
ag3035
aS'likeness'
p4576
ag2909
as(S'Ib,'
p4577
g1682
tp4578
(lp4579
g1683
as(g1754
g1067
tp4580
(lp4581
g1068
as(S'stones'
p4582
g364
tp4583
(lp4584
g365
as(g3872
S'ere'
p4585
tp4586
(lp4587
S'any'
p4588
as(g3976
S'a'
tp4589
(lp4590
g4513
as(S'beneath'
p4591
g4284
tp4592
(lp4593
g4285
aS'gibbous'
p4594
as(S'of'
p4595
g2525
tp4596
(lp4597
g422
as(g266
g269
tp4598
(lp4599
g3692
as(g4184
S'and'
p4600
tp4601
(lp4602
g28
as(g2562
g1599
tp4603
(lp4604
g1600
as(S'of'
p4605
S'marble'
p4606
tp4607
(lp4608
g3343
as(g994
g2146
tp4609
(lp4610
g2147
as(g1771
S'with'
p4611
tp4612
(lp4613
S'a'
as(g53
g56
tp4614
(lp4615
S'in'
p4616
as(S'Mnar'
p4617
S'and'
p4618
tp4619
(lp4620
g3249
aS'of'
p4621
aS'the'
p4622
aS'the'
p4623
as(g2797
S'stones'
p4624
tp4625
(lp4626
S'of'
p4627
as(g1801
g239
tp4628
(lp4629
g240
as(S'not'
p4630
g3854
tp4631
(lp4632
g3855
as(g1863
g3570
tp4633
(lp4634
g3571
as(g913
g916
tp4635
(lp4636
g4339
as(S'over'
p4637
g3664
tp4638
(lp4639
g3665
as(g3575
g184
tp4640
(lp4641
g185
as(S'city'
p4642
g4179
tp4643
(lp4644
S'However'
p4645
as(S'flocks,'
p4646
g312
tp4647
(lp4648
g313
as(g3818
g765
tp4649
(lp4650
g766
as(g1520
g1163
tp4651
(lp4652
g1164
as(S'first'
p4653
g3401
tp4654
(lp4655
g3402
as(S'elsewhere.'
p4656
S'A'
tp4657
(lp4658
S'full'
p4659
as(S'and'
p4660
S'learned'
p4661
tp4662
(lp4663
g4329
as(S'which'
p4664
g4010
tp4665
(lp4666
g368
aS'expanded.'
p4667
as(g77
g4297
tp4668
(lp4669
g1119
ag219
as(S'were'
p4670
S'hung'
p4671
tp4672
(lp4673
S'fulgent'
p4674
as(g404
g407
tp4675
(lp4676
g3678
as(g1486
g1489
tp4677
(lp4678
g1917
as(S'of'
p4679
g23
tp4680
(lp4681
g24
ag117
as(S'rose'
p4682
S'oddly'
p4683
tp4684
(lp4685
g4360
as(g4508
g2914
tp4686
(lp4687
g2915
aS'Sarnath'
p4688
ag4402
aS'Mnar.'
p4689
as(g3424
S'with'
p4690
tp4691
(lp4692
g500
as(g712
S'was'
p4693
tp4694
(lp4695
S'because'
p4696
ag4630
ag1017
aS'wrought'
p4697
aS'clear,'
p4698
ag3928
aS'always'
p4699
aS'the'
p4700
as(g4585
g4588
tp4701
(lp4702
g2276
as(g1040
g1043
tp4703
(lp4704
S'sea-green'
p4705
as(g1076
g3236
tp4706
(lp4707
g1124
as(S'lingered'
p4708
g2431
tp4709
(lp4710
g2397
as(S'tower'
p4711
g1804
tp4712
(lp4713
g1805
as(g4115
g3969
tp4714
(lp4715
g3970
as(g3124
g3703
tp4716
(lp4717
S'the'
p4718
as(g1252
g1850
tp4719
(lp4720
g1851
as(g486
g489
tp4721
(lp4722
S'they'
p4723
as(g2081
g2361
tp4724
(lp4725
g2362
as(g2036
g3716
tp4726
(lp4727
g4104
as(g1858
g3246
tp4728
(lp4729
g2346
as(g4667
g2993
tp4730
(lp4731
g728
as(S'the'
p4732
g1800
tp4733
(lp4734
g1801
as(g1891
g1894
tp4735
(lp4736
g4366
as(g572
S'king\x92s'
p4737
tp4738
(lp4739
S'banquet-hall,'
p4740
as(g360
g363
tp4741
(lp4742
S'remote'
p4743
as(g2362
g2365
tp4744
(lp4745
g3745
as(g2624
g1490
tp4746
(lp4747
g1491
ag815
as(g3009
g3012
tp4748
(lp4749
S'stone'
p4750
as(g780
g3778
tp4751
(lp4752
g3450
as(g2496
g2499
tp4753
(lp4754
g1469
as(S'But'
p4755
S'as'
p4756
tp4757
(lp4758
g2982
as(g1045
g1048
tp4759
(lp4760
g4191
as(S'spices'
p4761
S'from'
p4762
tp4763
(lp4764
g62
as(g2505
g1083
tp4765
(lp4766
g1084
as(g574
g577
tp4767
(lp4768
g2385
as(g2168
g2171
tp4769
(lp4770
g1495
as(g2840
S'of'
p4771
tp4772
(lp4773
g2615
ag3070
as(g93
g96
tp4774
(lp4775
g1061
as(g1799
g403
tp4776
(lp4777
g404
as(g3027
g3030
tp4778
(lp4779
g490
as(g3832
g3835
tp4780
(lp4781
g3907
as(g365
g189
tp4782
(lp4783
g190
as(g881
g884
tp4784
(lp4785
g1210
as(g1401
g975
tp4786
(lp4787
g976
as(g2643
g1955
tp4788
(lp4789
g1956
as(g123
g126
tp4790
(lp4791
g1306
as(g4256
S'lions'
p4792
tp4793
(lp4794
S'and'
p4795
as(g1840
g3804
tp4796
(lp4797
g3321
aS'set'
p4798
as(g3906
g4388
tp4799
(lp4800
g1795
as(g243
g1671
tp4801
(lp4802
g1705
as(g2357
g2360
tp4803
(lp4804
S'cursed'
p4805
as(g1391
g1394
tp4806
(lp4807
g2272
as(g2821
g1184
tp4808
(lp4809
g1185
as(g274
g586
tp4810
(lp4811
g2570
ag1140
as(g3457
g3460
tp4812
(lp4813
g4412
as(g1681
S'in'
p4814
tp4815
(lp4816
g1809
as(g4814
g1809
tp4817
(lp4818
g1810
as(g395
g2380
tp4819
(lp4820
g2381
as(S'ancient'
p4821
g2246
tp4822
(lp4823
S'of'
p4824
as(g4688
g2918
tp4825
(lp4826
g2304
as(g3167
g286
tp4827
(lp4828
g287
ag3815
as(g1310
g795
tp4829
(lp4830
g796
as(g2450
S'On'
p4831
tp4832
(lp4833
S'the'
p4834
as(g2512
g1509
tp4835
(lp4836
g1510
as(g449
g452
tp4837
(lp4838
g2105
as(S'of'
p4839
g1530
tp4840
(lp4841
g1531
as(g586
g2570
tp4842
(lp4843
g1545
ag1141
as(g4104
g3045
tp4844
(lp4845
g3046
as(g4792
g4795
tp4846
(lp4847
g2554
ag168
as(g648
g911
tp4848
(lp4849
S'away'
p4850
as(g1593
g1243
tp4851
(lp4852
g1244
as(S'waxed'
p4853
S'mighty'
p4854
tp4855
(lp4856
g4660
as(g1921
g178
tp4857
(lp4858
g179
as(g2049
g2052
tp4859
(lp4860
S'once'
p4861
as(g3194
g3197
tp4862
(lp4863
S'of'
p4864
as(g2202
g1565
tp4865
(lp4866
S'a'
as(g3495
g3498
tp4867
(lp4868
S'hardy'
p4869
as(g4693
g4696
tp4870
(lp4871
S'the'
p4872
as(g3314
g3317
tp4873
(lp4874
g3142
ag876
ag4020
as(g709
g712
tp4875
(lp4876
g4693
as(g2442
g78
tp4877
(lp4878
S'the'
p4879
aS'pride'
p4880
as(g2963
g2966
tp4881
(lp4882
S'the'
p4883
as(S'vast'
p4884
S'paintings'
p4885
tp4886
(lp4887
S'of'
p4888
as(g39
g42
tp4889
(lp4890
g4265
as(g3211
g4002
tp4891
(lp4892
g3217
ag1614
aS'Akurion'
p4893
as(g1663
g990
tp4894
(lp4895
g991
as(g56
g4616
tp4896
(lp4897
S'the'
p4898
as(g1149
S'drunken'
p4899
tp4900
(lp4901
S'with'
p4902
as(g1678
g1681
tp4903
(lp4904
g4814
as(g4395
g4398
tp4905
(lp4906
S'into'
p4907
ag3629
as(g248
S'fifty'
p4908
tp4909
(lp4910
S'streets'
p4911
as(g200
g203
tp4912
(lp4913
g718
as(g2410
S'here'
p4914
tp4915
(lp4916
g2479
as(g2841
S'of'
p4917
tp4918
(lp4919
g1011
as(g3471
g3474
tp4920
(lp4921
g3938
as(S'why'
p4922
S'those'
p4923
tp4924
(lp4925
S'sculptures'
p4926
as(S'Mnar'
p4927
S'a'
tp4928
(lp4929
g3467
as(S'and'
p4930
S'viewed'
p4931
tp4932
(lp4933
g650
as(g4500
g4503
tp4934
(lp4935
S'showed'
p4936
as(g2209
g3943
tp4937
(lp4938
g3944
as(g3281
g1258
tp4939
(lp4940
g1259
as(g688
g4142
tp4941
(lp4942
g2289
as(g3865
S'elephants,'
p4943
tp4944
(lp4945
g1504
as(S'so'
p4946
S'vast'
p4947
tp4948
(lp4949
S'a'
as(g2832
g2835
tp4950
(lp4951
g2122
as(g2453
g4755
tp4952
(lp4953
g4756
as(g3330
g674
tp4954
(lp4955
g675
as(g2008
S'horses'
p4956
tp4957
(lp4958
S'and'
p4959
aS'and'
p4960
as(g4285
g4288
tp4961
(lp4962
S'the'
p4963
as(g649
g1639
tp4964
(lp4965
S'they'
p4966
as(S'a'
g3574
tp4967
(lp4968
g3575
as(g2463
g2492
tp4969
(lp4970
g1950
as(g3014
g2393
tp4971
(lp4972
g2394
as(g704
g707
tp4973
(lp4974
g805
as(S'a'
g2332
tp4975
(lp4976
g2333
as(g2886
g2889
tp4977
(lp4978
S'a'
as(g4885
g4888
tp4979
(lp4980
g4017
as(S'strange'
p4981
g1200
tp4982
(lp4983
g1201
as(g454
g457
tp4984
(lp4985
g1960
as(g1936
g2985
tp4986
(lp4987
g2986
as(S'fear'
p4988
g2110
tp4989
(lp4990
g2111
as(g864
g867
tp4991
(lp4992
S'of'
p4993
as(g3350
g3353
tp4994
(lp4995
S'The'
p4996
as(g1993
g1450
tp4997
(lp4998
g1451
as(g2719
g1677
tp4999
(lp5000
g1678
as(g841
g844
tp5001
(lp5002
g2716
as(g98
g101
tp5003
(lp5004
g3457
aS'and'
p5005
as(g3318
g4139
tp5006
(lp5007
g2591
as(g4947
S'a'
tp5008
(lp5009
g4308
as(g1257
g4281
tp5010
(lp5011
g1395
as(g918
g921
tp5012
(lp5013
g2434
as(g4213
g4154
tp5014
(lp5015
g4155
as(g852
S'from'
p5016
tp5017
(lp5018
S'the'
p5019
aS'Sarnath,'
p5020
as(g2001
g2004
tp5021
(lp5022
g3442
as(g520
g523
tp5023
(lp5024
g3880
ag4369
as(S'kindled'
p5025
g2518
tp5026
(lp5027
g1979
as(g3678
g3462
tp5028
(lp5029
g3463
as(S'high'
p5030
g1924
tp5031
(lp5032
g1925
as(g4179
g4645
tp5033
(lp5034
g3499
as(g606
g609
tp5035
(lp5036
g3273
as(g2667
g2670
tp5037
(lp5038
S'Ilarnek'
p5039
as(S'them.'
p5040
g4161
tp5041
(lp5042
g2863
as(g4244
g4247
tp5043
(lp5044
S'until'
p5045
as(g4440
g4023
tp5046
(lp5047
g3475
as(g3298
g391
tp5048
(lp5049
g392
as(g4170
g122
tp5050
(lp5051
g123
as(g719
g722
tp5052
(lp5053
S'the'
p5054
as(g2039
g2776
tp5055
(lp5056
g3350
as(S'with'
p5057
g4030
tp5058
(lp5059
g4031
as(S'knew'
p5060
g2298
tp5061
(lp5062
g1029
as(S'sea-fights,'
p5063
S'or'
p5064
tp5065
(lp5066
S'combats'
p5067
as(g2902
g2905
tp5068
(lp5069
g4323
ag3812
as(g548
S'courses,'
p5070
tp5071
(lp5072
S'and'
p5073
as(g933
g2250
tp5074
(lp5075
S'the'
p5076
as(g4674
g2761
tp5077
(lp5078
g2762
as(g66
S'pearls'
p5079
tp5080
(lp5081
S'from'
p5082
as(g1676
S'and'
p5083
tp5084
(lp5085
S'the'
p5086
as(g108
g713
tp5087
(lp5088
g714
as(S'or'
p5089
g2163
tp5090
(lp5091
g2164
as(g3916
g3160
tp5092
(lp5093
g2154
as(g2247
g3177
tp5094
(lp5095
g3178
as(g1766
g4073
tp5096
(lp5097
g2538
as(S'thrones.'
p5098
g2227
tp5099
(lp5100
g2228
as(g2621
g2624
tp5101
(lp5102
g1490
as(g2464
g141
tp5103
(lp5104
g142
as(S'lake,'
p5105
g3416
tp5106
(lp5107
g3742
as(g1808
g3557
tp5108
(lp5109
g4591
as(S'shrieked'
p5110
g2662
tp5111
(lp5112
g2663
as(g2850
g2853
tp5113
(lp5114
g1731
as(S'the'
p5115
g2449
tp5116
(lp5117
g2846
ag4831
as(g63
g66
tp5118
(lp5119
g5079
as(g5079
g5082
tp5120
(lp5121
g2533
as(g313
g316
tp5122
(lp5123
g3620
as(g4402
g3704
tp5124
(lp5125
g3705
as(g5086
g2838
tp5126
(lp5127
g3198
ag1359
as(g1592
g1628
tp5128
(lp5129
g1629
as(g3755
g1550
tp5130
(lp5131
g1551
ag776
as(g434
g556
tp5132
(lp5133
g1568
as(g1332
g1335
tp5134
(lp5135
S'land'
p5136
aS'land'
p5137
ag4035
ag4023
aS'people'
p5138
ag2422
ag2022
ag955
ag3969
ag1890
aS'men'
p5139
aS'lake'
p5140
as(g3842
g2312
tp5141
(lp5142
g2313
as(g4222
g4225
tp5143
(lp5144
g2021
as(g3460
g4412
tp5145
(lp5146
g2849
as(g1975
g1978
tp5147
(lp5148
g4557
as(g441
g444
tp5149
(lp5150
S'fleecy'
p5151
ag3709
as(g2028
g3558
tp5152
(lp5153
g1573
as(g1500
g3868
tp5154
(lp5155
g4653
as(S'before'
p5156
g4664
tp5157
(lp5158
g4010
as(g956
g959
tp5159
(lp5160
g3625
ag18
aS'who'
p5161
as(g4233
g4236
tp5162
(lp5163
g4494
as(g839
g2279
tp5164
(lp5165
g2280
as(g1172
g5156
tp5166
(lp5167
g4664
as(S'and'
p5168
S'towers'
p5169
tp5170
(lp5171
S'yet'
p5172
as(S'lake'
p5173
g102
tp5174
(lp5175
g2832
ag1215
ag1263
ag2821
aS'saw'
p5176
as(S'temples'
p5177
S'of'
p5178
tp5179
(lp5180
S'Sarnath,'
p5181
as(g2379
S'It'
p5182
tp5183
(lp5184
S'is'
p5185
as(g1961
g1964
tp5186
(lp5187
g3606
as(g1828
g2060
tp5188
(lp5189
S'palace,'
p5190
ag4737
as(g3603
g2284
tp5191
(lp5192
g2285
ag3013
as(g2257
g234
tp5193
(lp5194
g235
as(g4899
g4902
tp5195
(lp5196
g3509
as(g3106
S'departed,'
p5197
tp5198
(lp5199
S'though'
p5200
as(g3366
S'in'
p5201
tp5202
(lp5203
g156
as(S'were'
p5204
S'mightier'
p5205
tp5206
(lp5207
g194
as(g4689
g1757
tp5208
(lp5209
g1758
as(g1673
g1676
tp5210
(lp5211
g5083
as(S'in'
p5212
S'fright.'
p5213
tp5214
(lp5215
g2854
as(S'surpassing'
p5216
S'beauty.'
p5217
tp5218
(lp5219
g3193
as(g3868
g4653
tp5220
(lp5221
g3401
as(g79
g4880
tp5222
(lp5223
S'of'
p5224
as(g3927
g1267
tp5225
(lp5226
g1268
as(g2233
g2236
tp5227
(lp5228
g4026
as(g14
g17
tp5229
(lp5230
g2129
as(g5213
g2854
tp5231
(lp5232
g2855
as(g3367
g3370
tp5233
(lp5234
g2868
as(g3792
g4121
tp5235
(lp5236
g5025
as(g2004
g3442
tp5237
(lp5238
g3443
as(g1727
g1730
tp5239
(lp5240
g2005
as(g1706
g1709
tp5241
(lp5242
g694
as(g2046
g1390
tp5243
(lp5244
g1391
as(g1192
g3590
tp5245
(lp5246
g3591
as(S'the'
p5247
g1465
tp5248
(lp5249
g1466
ag4213
ag325
as(S'ancient'
p5250
g2247
tp5251
(lp5252
g3177
as(g1084
g1087
tp5253
(lp5254
S'high'
p5255
as(g160
g1815
tp5256
(lp5257
S'all'
p5258
aS'Mnar'
p5259
as(g2339
g3773
tp5260
(lp5261
g2489
as(g4699
g3504
tp5262
(lp5263
g3505
as(g2212
g4385
tp5264
(lp5265
g3186
as(g2576
g4630
tp5266
(lp5267
g3854
ag3929
as(g1747
g1750
tp5268
(lp5269
g3754
aS'the'
p5270
as(g2770
g2773
tp5271
(lp5272
g3488
as(g3103
g3106
tp5273
(lp5274
g5197
as(g224
g227
tp5275
(lp5276
g3386
as(g4556
S'streams'
p5277
tp5278
(lp5279
g4637
as(g1510
g1513
tp5280
(lp5281
S'along'
p5282
as(g1531
g1534
tp5283
(lp5284
g4426
as(S'prospered'
p5285
g4040
tp5286
(lp5287
g4041
as(g2141
S'a'
tp5288
(lp5289
g146
as(g4570
g1910
tp5290
(lp5291
g1911
aS'Bokrug,'
p5292
aS'Bokrug,'
p5293
as(g1643
g2226
tp5294
(lp5295
S'Doom-scrawl'
p5296
as(g642
g645
tp5297
(lp5298
g3584
as(g4153
g1113
tp5299
(lp5300
g1387
as(g1796
g1799
tp5301
(lp5302
g403
as(g2625
g2366
tp5303
(lp5304
g2367
as(g3385
g2836
tp5305
(lp5306
S'still'
p5307
aS'still'
p5308
as(g2938
S'benches'
p5309
tp5310
(lp5311
g4605
as(g2590
g3810
tp5312
(lp5313
g1160
as(g4963
g2453
tp5314
(lp5315
g4755
as(g496
g499
tp5316
(lp5317
g1855
as(g904
g907
tp5318
(lp5319
g814
as(g3670
g1577
tp5320
(lp5321
g1578
as(g1144
g1383
tp5322
(lp5323
g1384
as(g4302
g2742
tp5324
(lp5325
g2743
as(g3863
g223
tp5326
(lp5327
g224
ag2555
ag748
ag414
as(g2416
g4348
tp5328
(lp5329
g254
as(g1660
g3432
tp5330
(lp5331
g3433
as(S'lake'
p5332
g105
tp5333
(lp5334
S'a'
as(S'the'
p5335
g3035
tp5336
(lp5337
g2140
as(g848
g851
tp5338
(lp5339
g3529
as(g3097
g1898
tp5340
(lp5341
g1899
ag2096
ag3060
ag2106
as(g1249
g1252
tp5342
(lp5343
g1850
as(g501
S'a'
tp5344
(lp5345
g3684
ag2706
as(g4494
g562
tp5346
(lp5347
g563
aS'near'
p5348
as(g2524
g3958
tp5349
(lp5350
S'himself'
p5351
as(g1237
g2683
tp5352
(lp5353
g880
as(S'gray'
p5354
g4001
tp5355
(lp5356
S'of'
p5357
as(S'So'
p5358
g3163
tp5359
(lp5360
g3164
as(g334
g4527
tp5361
(lp5362
g2115
as(g545
g548
tp5363
(lp5364
g5070
ag5030
ag3052
as(g1595
g1598
tp5365
(lp5366
g4670
as(g1768
g1771
tp5367
(lp5368
g4611
as(g2790
g3698
tp5369
(lp5370
g1662
as(g2992
g4264
tp5371
(lp5372
S'that'
p5373
as(g1417
g1248
tp5374
(lp5375
g1249
as(g2052
g4861
tp5376
(lp5377
S'inspiring'
p5378
as(S'a'
g2268
tp5379
(lp5380
g2269
as(g1546
g1549
tp5381
(lp5382
g2376
as(g137
g140
tp5383
(lp5384
S'of'
p5385
as(g331
g334
tp5386
(lp5387
g4527
as(g3846
g2642
tp5388
(lp5389
g2643
as(g1496
g1499
tp5390
(lp5391
g3174
as(g162
S'of'
p5392
tp5393
(lp5394
S'the'
p5395
ag3546
as(g2877
g2880
tp5396
(lp5397
S'the'
p5398
as(g1461
g1464
tp5399
(lp5400
S'and'
p5401
as(g2336
S'they'
p5402
tp5403
(lp5404
g1477
ag2505
as(g1167
g2837
tp5405
(lp5406
g3770
as(g4560
S'ivory'
p5407
tp5408
(lp5409
g5098
as(g3942
g2061
tp5410
(lp5411
g2062
as(g2579
g4007
tp5412
(lp5413
g2628
as(g4142
g2289
tp5414
(lp5415
g2290
as(g2376
g2379
tp5416
(lp5417
g5182
as(g4155
g4158
tp5418
(lp5419
S'is'
p5420
aS'was'
p5421
aS'was'
p5422
as(g901
S'cooled'
p5423
tp5424
(lp5425
g3125
as(g5172
g929
tp5426
(lp5427
g930
as(g3721
g1485
tp5428
(lp5429
g1486
as(g2020
g2582
tp5430
(lp5431
S'might'
p5432
as(g4805
S'and'
p5433
tp5434
(lp5435
S'joined'
p5436
as(g3371
S'incense-enveloped'
p5437
tp5438
(lp5439
S'shrines'
p5440
as(g4421
g2068
tp5441
(lp5442
g2069
as(g2567
g5063
tp5443
(lp5444
g5064
as(g4661
g4329
tp5445
(lp5446
g743
as(g1717
g1720
tp5447
(lp5448
S'intersecting'
p5449
as(g4606
g3343
tp5450
(lp5451
g3344
as(g1569
g1572
tp5452
(lp5453
g3550
aS'and'
p5454
as(g5255
g4711
tp5455
(lp5456
g1804
as(g4203
g162
tp5457
(lp5458
g5392
aS'of'
p5459
as(g2670
g5039
tp5460
(lp5461
S'or'
p5462
as(g2551
g655
tp5463
(lp5464
g656
as(g412
g1028
tp5465
(lp5466
g3410
as(g110
g1697
tp5467
(lp5468
g3213
as(g2777
g2881
tp5469
(lp5470
g2882
as(g4418
g4421
tp5471
(lp5472
g2068
as(g5421
g4697
tp5473
(lp5474
S'of'
p5475
as(g3812
g2174
tp5476
(lp5477
g2175
as(S'they'
p5478
g4667
tp5479
(lp5480
g2993
as(g4690
g500
tp5481
(lp5482
g501
as(g130
S'precious'
p5483
tp5484
(lp5485
g4538
as(g3421
g3424
tp5486
(lp5487
g4690
as(g727
g2349
tp5488
(lp5489
g2350
as(g1951
g1954
tp5490
(lp5491
g5335
as(g1434
g1619
tp5492
(lp5493
g1620
aS'and'
p5494
as(g4834
S'ground'
p5495
tp5496
(lp5497
S'were'
p5498
as(g1279
g4208
tp5499
(lp5500
g2677
as(S'luxury'
p5501
S'that'
p5502
tp5503
(lp5504
g1876
as(g1033
g3330
tp5505
(lp5506
g674
as(g3508
g4556
tp5507
(lp5508
g5277
as(g4453
g4679
tp5509
(lp5510
g23
as(S'a'
g3255
tp5511
(lp5512
g2711
as(g4718
g4035
tp5513
(lp5514
g4036
as(g4089
S'wherein'
p5515
tp5516
(lp5517
S'Sarnath'
p5518
as(g2846
g1886
tp5519
(lp5520
g1887
as(g1574
g1145
tp5521
(lp5522
g1146
as(S'the'
p5523
g787
tp5524
(lp5525
S'of'
p5526
as(g3869
g3872
tp5527
(lp5528
g4585
as(g1339
g1342
tp5529
(lp5530
g2158
as(g5181
g1193
tp5531
(lp5532
g1194
as(g222
g3962
tp5533
(lp5534
g3963
as(g5378
g4221
tp5535
(lp5536
g4222
as(g358
g4092
tp5537
(lp5538
g3614
as(g2446
g3784
tp5539
(lp5540
S'And'
p5541
as(g107
g3482
tp5542
(lp5543
g1205
as(S'and'
p5544
g4761
tp5545
(lp5546
g4762
as(g3199
g1313
tp5547
(lp5548
S'a'
as(g4002
g3217
tp5549
(lp5550
g3218
as(g4305
g5057
tp5551
(lp5552
g4030
as(g4148
g4582
tp5553
(lp5554
g364
as(g5277
g4637
tp5555
(lp5556
g3664
as(g1610
g1613
tp5557
(lp5558
g3514
as(g2970
g2815
tp5559
(lp5560
g281
as(g862
g840
tp5561
(lp5562
g841
as(g3443
g3446
tp5563
(lp5564
S'of'
p5565
as(g1837
g1840
tp5566
(lp5567
g3804
as(g4376
g4474
tp5568
(lp5569
g4922
as(g2192
g2195
tp5570
(lp5571
g2087
as(g1815
g5258
tp5572
(lp5573
S'the'
p5574
ag2616
ag4311
ag3071
as(g4174
g418
tp5575
(lp5576
g419
as(g4475
g4521
tp5577
(lp5578
S'a'
ag3203
as(g2443
g2340
tp5579
(lp5580
g2341
ag4577
aS'Ib.'
p5581
as(g2434
g2437
tp5582
(lp5583
g3728
ag4821
ag2159
ag5250
as(g4914
g2479
tp5584
(lp5585
g738
as(g4573
g2732
tp5586
(lp5587
g2733
as(g2805
g2808
tp5588
(lp5589
g3688
as(g1720
g5449
tp5590
(lp5591
g5040
as(g444
g5151
tp5592
(lp5593
g4646
as(g4936
g4884
tp5594
(lp5595
g4885
as(g818
g2777
tp5596
(lp5597
g2881
as(g3819
g5089
tp5598
(lp5599
g2163
as(g3745
g3748
tp5600
(lp5601
g4086
as(g3784
g5541
tp5602
(lp5603
S'there'
p5604
as(g1648
g4170
tp5605
(lp5606
g122
as(g285
g3658
tp5607
(lp5608
g5216
as(g2331
g2862
tp5609
(lp5610
g4302
as(g2534
g2537
tp5611
(lp5612
g3983
as(S'dwell'
p5613
g1721
tp5614
(lp5615
g1722
as(g4462
g4465
tp5616
(lp5617
S'and'
p5618
ag5168
as(S'tower-like'
p5619
g5177
tp5620
(lp5621
g5178
as(S'known'
p5622
g4656
tp5623
(lp5624
S'A'
as(S'than'
p5625
g4278
tp5626
(lp5627
g3120
as(g3487
g557
tp5628
(lp5629
g558
as(g577
g2385
tp5630
(lp5631
g2386
as(g3203
g3206
tp5632
(lp5633
g1726
as(g1384
g1224
tp5634
(lp5635
g1225
as(g3441
g3371
tp5636
(lp5637
g5437
as(g287
g290
tp5638
(lp5639
g2521
as(g2954
g2957
tp5640
(lp5641
S'there'
p5642
as(S'eyes,'
p5643
g3876
tp5644
(lp5645
g3877
as(g1426
g1429
tp5646
(lp5647
g2183
as(g4943
g1504
tp5648
(lp5649
g1505
as(g4333
g4336
tp5650
(lp5651
g5332
as(g5502
g1876
tp5652
(lp5653
g1877
as(g227
g3386
tp5654
(lp5655
g1289
ag5205
ag4671
as(g1327
g3894
tp5656
(lp5657
g4946
as(g556
g1568
tp5658
(lp5659
g1569
as(g999
g2256
tp5660
(lp5661
g2257
aS'of'
p5662
as(S'not'
p5663
g5622
tp5664
(lp5665
g4656
as(g2062
g2065
tp5666
(lp5667
g3103
as(g369
g372
tp5668
(lp5669
S'the'
p5670
as(g3030
g490
tp5671
(lp5672
g491
as(g3526
g2950
tp5673
(lp5674
g2951
as(g4121
g5025
tp5675
(lp5676
g2518
as(g1175
g52
tp5677
(lp5678
g53
as(g602
g440
tp5679
(lp5680
g441
as(g4365
g891
tp5681
(lp5682
g892
as(g2088
g2091
tp5683
(lp5684
g3278
as(g4750
g5663
tp5685
(lp5686
g5622
as(S'winding'
p5687
S'river'
p5688
tp5689
(lp5690
g4080
ag1273
as(S'metals'
p5691
S'no'
p5692
tp5693
(lp5694
S'more.'
p5695
as(S'a'
g2706
tp5696
(lp5697
g2707
as(g2986
g2989
tp5698
(lp5699
g1767
as(g5197
g5200
tp5700
(lp5701
S'they'
p5702
as(g4250
g4253
tp5703
(lp5704
S'chiseled'
p5705
as(g1055
g3934
tp5706
(lp5707
S'the'
p5708
as(g724
g727
tp5709
(lp5710
g2349
as(g4264
g5373
tp5711
(lp5712
g4682
as(g698
g974
tp5713
(lp5714
g3287
as(g1102
g3313
tp5715
(lp5716
g3314
as(g3236
g1124
tp5717
(lp5718
g1125
as(g1820
g1823
tp5719
(lp5720
g84
as(g2599
g3845
tp5721
(lp5722
g3846
as(g1524
g1527
tp5723
(lp5724
g980
as(S'is'
p5725
g2205
tp5726
(lp5727
g2206
ag1456
ag636
as(g3810
g1160
tp5728
(lp5729
g1072
as(g280
g398
tp5730
(lp5731
S'of'
p5732
as(g1615
g1618
tp5733
(lp5734
g2294
as(g3705
g3708
tp5735
(lp5736
g5643
as(g245
g248
tp5737
(lp5738
g4908
ag579
ag1873
as(g3187
g3190
tp5739
(lp5740
g1824
aS'nobles'
p5741
as(g3467
g3470
tp5742
(lp5743
g3610
aS'lake'
p5744
aS'lake'
p5745
as(g145
g1422
tp5746
(lp5747
S'a'
as(g1436
g1439
tp5748
(lp5749
g4462
as(g2403
g1472
tp5750
(lp5751
g1473
as(g4385
g3186
tp5752
(lp5753
g3187
as(g1745
g3303
tp5754
(lp5755
g3518
as(g1156
g1159
tp5756
(lp5757
g1820
as(g3066
g1108
tp5758
(lp5759
g1109
as(g5449
g5040
tp5760
(lp5761
g4161
as(g4696
g4872
tp5762
(lp5763
S'land'
p5764
as(g558
g561
tp5765
(lp5766
g2824
as(g4013
g4016
tp5767
(lp5768
S'all'
p5769
as(g4588
g2276
tp5770
(lp5771
g1253
as(S'Kadatheron.'
p5772
g5358
tp5773
(lp5774
g3163
as(g4026
g4029
tp5775
(lp5776
g917
as(g1653
g4927
tp5777
(lp5778
S'a'
ag1014
aS'or'
p5779
ag4618
aS'and'
p5780
aS'and'
p5781
aS'and'
p5782
as(g2440
g3100
tp5783
(lp5784
g4145
as(g3046
g408
tp5785
(lp5786
g409
as(S'chariots'
p5787
g3023
tp5788
(lp5789
g3024
as(g2244
g2545
tp5790
(lp5791
g2232
as(g1408
g1789
tp5792
(lp5793
g4988
ag3
as(g2469
S'to'
p5794
tp5795
(lp5796
S'the'
p5797
as(g1112
g4256
tp5798
(lp5799
g4792
as(g2755
g1736
tp5800
(lp5801
g1737
aS'land'
p5802
aS'cities'
p5803
ag3673
ag137
ag832
aS'land'
p5804
as(g174
g177
tp5805
(lp5806
g373
as(g3510
g3513
tp5807
(lp5808
g4732
as(g4869
g5625
tp5809
(lp5810
g4278
as(S'were'
p5811
g4305
tp5812
(lp5813
g5057
as(g3002
g2454
tp5814
(lp5815
g1051
as(g1004
g1007
tp5816
(lp5817
g276
as(g4762
g62
tp5818
(lp5819
g63
as(g1139
g4000
tp5820
(lp5821
g4175
ag4642
as(g5803
S'of'
p5822
tp5823
(lp5824
S'Mnar'
p5825
as(g4879
g2840
tp5826
(lp5827
g4771
as(S'they'
p5828
g610
tp5829
(lp5830
g4226
as(g5076
g484
tp5831
(lp5832
S'shore,'
p5833
as(g3005
g3008
tp5834
(lp5835
g4853
as(g2262
g2416
tp5836
(lp5837
g4348
as(g3894
g4946
tp5838
(lp5839
g4947
as(g523
g3880
tp5840
(lp5841
g1741
ag4370
as(g4422
g4425
tp5842
(lp5843
g5247
as(g4031
g4034
tp5844
(lp5845
S'that'
p5846
as(g3081
g7
tp5847
(lp5848
g8
ag1672
ag1640
as(g1650
g1653
tp5849
(lp5850
g4927
ag948
ag2092
ag2890
aS'Mnar'
p5851
ag4617
ag618
aS'Mnar'
p5852
aS'Mnar.'
p5853
as(g1347
g5687
tp5854
(lp5855
g5688
ag1272
as(g4073
g2538
tp5856
(lp5857
g2539
as(g2195
g2087
tp5858
(lp5859
g2088
as(g1206
g1209
tp5860
(lp5861
g2213
as(g4931
g650
tp5862
(lp5863
g651
as(g5185
g3409
tp5864
(lp5865
g3950
as(g3353
g4996
tp5866
(lp5867
S'houses'
p5868
as(g3958
g5351
tp5869
(lp5870
g4054
ag1057
as(g5351
g4054
tp5871
(lp5872
g478
as(g4893
g2583
tp5873
(lp5874
g2584
as(g5309
g4605
tp5875
(lp5876
g4606
as(g5868
S'of'
p5877
tp5878
(lp5879
S'Sarnath'
p5880
as(g3643
g1592
tp5881
(lp5882
g1628
as(g4512
g4689
tp5883
(lp5884
g1757
as(g4324
g922
tp5885
(lp5886
g665
as(g3709
g2032
tp5887
(lp5888
g2033
as(g772
g2028
tp5889
(lp5890
g3558
as(g2041
g2044
tp5891
(lp5892
g3838
as(g3973
g3976
tp5893
(lp5894
S'a'
as(g1902
g819
tp5895
(lp5896
g270
aS'pouting,'
p5897
as(g1120
g1123
tp5898
(lp5899
g2470
as(g3498
g4869
tp5900
(lp5901
g5625
as(g164
g167
tp5902
(lp5903
g1056
as(g2799
g2802
tp5904
(lp5905
g3040
as(g3990
g4981
tp5906
(lp5907
g1200
as(g4340
g4343
tp5908
(lp5909
g828
as(g4966
g852
tp5910
(lp5911
g5016
as(g4926
g4708
tp5912
(lp5913
g2431
as(S'the'
p5914
g4570
tp5915
(lp5916
g1910
aS'of'
p5917
aS'of'
p5918
as(g459
g462
tp5919
(lp5920
g5811
as(g4565
g38
tp5921
(lp5922
g39
as(S'A'
g4659
tp5923
(lp5924
g1778
as(g1794
g4485
tp5925
(lp5926
g4486
as(g1711
g1714
tp5927
(lp5928
S'beings'
p5929
ag1583
ag550
ag3130
aS'cryptic'
p5930
as(g4743
S'from'
p5931
tp5932
(lp5933
g757
as(g2413
g3290
tp5934
(lp5935
g3298
as(g2842
g1242
tp5936
(lp5937
S'Before'
p5938
as(g469
g97
tp5939
(lp5940
g98
ag5173
ag961
ag3526
as(g2921
g2924
tp5941
(lp5942
g5914
aS'the'
p5943
aS'the'
p5944
as(g1254
g1257
tp5945
(lp5946
g4281
as(g3658
g5216
tp5947
(lp5948
g5217
as(g5483
g4538
tp5949
(lp5950
g2756
aS'from'
p5951
ag5692
as(S'a'
g2053
tp5952
(lp5953
g2054
as(g2687
g2690
tp5954
(lp5955
g2954
as(g2666
g568
tp5956
(lp5957
g569
as(g2825
g2828
tp5958
(lp5959
g2417
as(g3024
g2508
tp5960
(lp5961
g2509
as(g208
g2695
tp5962
(lp5963
S'stone'
p5964
aS'stone'
p5965
aS'eikon'
p5966
as(g1845
g2528
tp5967
(lp5968
g2529
ag1455
as(g3317
g3142
tp5969
(lp5970
g3143
as(g2183
g2186
tp5971
(lp5972
g3238
as(g742
g853
tp5973
(lp5974
g854
as(g1559
g2029
tp5975
(lp5976
g752
as(g3691
g4184
tp5977
(lp5978
g4600
ag2786
as(g3564
g2829
tp5979
(lp5980
g1989
as(g5169
g5172
tp5981
(lp5982
g929
as(g232
S'to'
p5983
tp5984
(lp5985
g2474
as(g2226
g5296
tp5986
(lp5987
g4595
as(g4241
g2187
tp5988
(lp5989
g2188
as(g4698
g1594
tp5990
(lp5991
g1595
as(g3523
g5544
tp5992
(lp5993
g4761
as(g3380
g1672
tp5994
(lp5995
g1673
as(g2025
g2303
tp5996
(lp5997
S'the'
p5998
aS'the'
p5999
as(g4318
g2750
tp6000
(lp6001
g335
as(g3146
g4202
tp6002
(lp6003
g2947
as(g4902
g3509
tp6004
(lp6005
g3510
as(g2255
g1931
tp6006
(lp6007
g1881
as(g762
g430
tp6008
(lp6009
g431
as(g5190
g4930
tp6010
(lp6011
g4931
as(g2928
S'a'
tp6012
(lp6013
g3574
ag2049
ag3009
as(g2712
g2715
tp6014
(lp6015
g2390
as(g2293
g2797
tp6016
(lp6017
g4624
as(g1854
g2631
tp6018
(lp6019
g2632
as(g5407
g5098
tp6020
(lp6021
g2227
as(g739
g742
tp6022
(lp6023
g853
as(g4382
g317
tp6024
(lp6025
g249
as(S'meads'
p6026
g4839
tp6027
(lp6028
g1530
as(g1422
S'a'
tp6029
(lp6030
g2268
as(S'moon'
p6031
S'and'
p6032
tp6033
(lp6034
S'significant'
p6035
ag2893
ag1561
ag326
as(g2228
g2231
tp6036
(lp6037
S'steps'
p6038
as(g3877
g1905
tp6039
(lp6040
g1906
as(g2853
g1731
tp6041
(lp6042
g1732
as(g414
g417
tp6043
(lp6044
S'Thraa,'
p6045
as(g2096
g2099
tp6046
(lp6047
g4422
as(g3594
g4006
tp6048
(lp6049
g5478
as(g4911
S'from'
p6050
tp6051
(lp6052
S'the'
p6053
as(g2592
g2595
tp6054
(lp6055
g3903
as(g851
g3529
tp6056
(lp6057
g2699
ag4485
as(S'gardens'
p6058
g901
tp6059
(lp6060
g5423
as(g5432
g3819
tp6061
(lp6062
g5089
as(S'the'
p6063
g3111
tp6064
(lp6065
g3112
as(g566
g871
tp6066
(lp6067
g872
ag3075
as(g3008
g4853
tp6068
(lp6069
g4854
as(g4185
S'of'
p6070
tp6071
(lp6072
g2221
as(g911
g4850
tp6073
(lp6074
g5212
as(g1980
g912
tp6075
(lp6076
g913
as(g2288
g2900
tp6077
(lp6078
S'three'
p6079
as(g5998
g4185
tp6080
(lp6081
g6070
as(g1247
g5787
tp6082
(lp6083
g3023
as(g4098
g4101
tp6084
(lp6085
g3947
as(S'Kadatheron'
p6086
g1829
tp6087
(lp6088
g1830
as(g3668
g6026
tp6089
(lp6090
g4839
as(g373
g376
tp6091
(lp6092
g2573
as(g2073
g2076
tp6093
(lp6094
g468
ag1349
as(g1774
g1777
tp6095
(lp6096
g1836
as(g5045
g2402
tp6097
(lp6098
g2403
as(g6035
g1364
tp6099
(lp6100
g1365
as(g3910
S'night'
p6101
tp6102
(lp6103
g3360
as(g2957
g5642
tp6104
(lp6105
S'were'
p6106
as(g5440
S'were'
p6107
tp6108
(lp6109
S'as'
p6110
as(g482
g966
tp6111
(lp6112
g2192
as(g3624
S'and'
p6113
tp6114
(lp6115
S'all'
p6116
as(g4671
g4674
tp6117
(lp6118
g2761
as(g1946
g1949
tp6119
(lp6120
S'wild'
p6121
as(g6121
S'with'
p6122
tp6123
(lp6124
S'fear'
p6125
as(g5518
g5285
tp6126
(lp6127
g4040
as(g1229
g1232
tp6128
(lp6129
g5725
as(g73
g76
tp6130
(lp6131
g3231
as(g3255
g2711
tp6132
(lp6133
g2712
as(g3413
g1587
tp6134
(lp6135
g1588
ag4444
as(g5475
S'one'
p6136
tp6137
(lp6138
g1103
as(g4351
g259
tp6139
(lp6140
S'the'
p6141
as(g1541
g1544
tp6142
(lp6143
g88
as(g2958
g2961
tp6144
(lp6145
g1370
as(g3638
g1790
tp6146
(lp6147
g1791
as(g195
g198
tp6148
(lp6149
g2667
as(g3012
g4750
tp6150
(lp6151
g5663
as(g3557
g4591
tp6152
(lp6153
g4284
as(g2509
g2512
tp6154
(lp6155
g1509
as(g4861
g5378
tp6156
(lp6157
g4221
as(g5966
g3139
tp6158
(lp6159
g1440
as(g2333
g2336
tp6160
(lp6161
g5402
as(g1671
g1705
tp6162
(lp6163
g1706
as(S'had'
p6164
g1449
tp6165
(lp6166
g4318
as(g71
g320
tp6167
(lp6168
g321
as(g4611
S'a'
tp6169
(lp6170
g2939
as(g1169
g1172
tp6171
(lp6172
g5156
as(g3406
g2901
tp6173
(lp6174
g2902
as(g118
g121
tp6175
(lp6176
g4013
as(g4409
g1523
tp6177
(lp6178
g1524
ag685
ag606
ag174
ag5828
ag2680
as(g1374
g5501
tp6179
(lp6180
g5502
as(g991
g994
tp6181
(lp6182
g2146
as(g1885
g2755
tp6183
(lp6184
g1736
as(g1363
g4459
tp6185
(lp6186
g5691
as(g417
g6045
tp6187
(lp6188
S'Ilarnek,'
p6189
as(g1097
g354
tp6190
(lp6191
g355
as(g3571
g1435
tp6192
(lp6193
g1436
as(g4474
g4922
tp6194
(lp6195
g4923
as(g2893
g2896
tp6196
(lp6197
g4127
aS'it'
p6198
as(g2843
g4447
tp6199
(lp6200
S'mists'
p6201
as(g484
g5833
tp6202
(lp6203
g3883
as(g2060
g5190
tp6204
(lp6205
g4930
as(g6106
g3320
tp6206
(lp6207
g4241
as(g5296
g4595
tp6208
(lp6209
g2525
as(g4831
g4834
tp6210
(lp6211
g5495
as(g1128
g2927
tp6212
(lp6213
g2928
as(g1928
g2650
tp6214
(lp6215
S'very'
p6216
as(g3269
g3272
tp6217
(lp6218
S'gates'
p6219
ag1301
aS'princes'
p6220
as(g3959
S'a'
tp6221
(lp6222
g3638
as(g2178
g4699
tp6223
(lp6224
g3504
as(g3939
g3942
tp6225
(lp6226
g2061
as(g4996
g5868
tp6227
(lp6228
g5877
as(g5437
g5440
tp6229
(lp6230
g6107
as(g2114
g4046
tp6231
(lp6232
g539
as(g4923
g4926
tp6233
(lp6234
g4708
as(S'from'
p6235
g5020
tp6236
(lp6237
g703
as(g1035
g1038
tp6238
(lp6239
g2967
as(g6101
g3360
tp6240
(lp6241
g3361
as(g996
g999
tp6242
(lp6243
g2256
as(g4737
g4740
tp6244
(lp6245
g3291
as(g4370
g4373
tp6246
(lp6247
g4429
as(g363
g4743
tp6248
(lp6249
g5931
as(g5138
g1540
tp6250
(lp6251
g5613
as(g4486
g2620
tp6252
(lp6253
g2621
as(g58
g61
tp6254
(lp6255
g3649
as(g1715
g5930
tp6256
(lp6257
g6031
as(g4085
g5803
tp6258
(lp6259
g5822
as(g2931
g2674
tp6260
(lp6261
g1181
as(S'they'
p6262
g3636
tp6263
(lp6264
g588
as(g4524
g4064
tp6265
(lp6266
g3295
as(g989
g995
tp6267
(lp6268
g996
as(g3402
g3089
tp6269
(lp6270
g3090
as(g629
g632
tp6271
(lp6272
S'it'
p6273
as(g5070
g5073
tp6274
(lp6275
g1189
as(g11
g4357
tp6276
(lp6277
g3758
as(g530
g533
tp6278
(lp6279
g4508
ag4582
as(g609
g3273
tp6280
(lp6281
g2605
as(g8
g11
tp6282
(lp6283
g4357
as(g5702
S'scarce'
p6284
tp6285
(lp6286
g5060
as(g528
g4354
tp6287
(lp6288
g1316
as(g4659
g1778
tp6289
(lp6290
g1779
as(g5688
g4080
tp6291
(lp6292
g4047
as(g3649
g3652
tp6293
(lp6294
S'and'
p6295
as(g4854
g4660
tp6296
(lp6297
g4661
as(g190
g193
tp6298
(lp6299
g848
as(g1241
g1050
tp6300
(lp6301
S'a'
as(g3241
g1945
tp6302
(lp6303
g1946
as(g2710
g3619
tp6304
(lp6305
g3832
as(g1050
S'a'
tp6306
(lp6307
g4524
as(g3130
g3133
tp6308
(lp6309
g5115
as(S'great'
p6310
g1175
tp6311
(lp6312
g52
as(g600
g2151
tp6313
(lp6314
g733
as(g2455
g3549
tp6315
(lp6316
g4237
as(g3197
g4864
tp6317
(lp6318
S'the'
p6319
as(g787
g5526
tp6320
(lp6321
S'the'
p6322
as(g1464
g5401
tp6323
(lp6324
g845
as(g2407
g2410
tp6325
(lp6326
g4914
as(g4645
g3499
tp6327
(lp6328
g1841
as(g1761
g2469
tp6329
(lp6330
g5794
as(g3749
g3305
tp6331
(lp6332
g3306
as(g5205
g194
tp6333
(lp6334
g195
as(g664
g1992
tp6335
(lp6336
g1993
as(g5398
g4186
tp6337
(lp6338
g5619
as(g854
g857
tp6339
(lp6340
g2100
as(g5930
g6031
tp6341
(lp6342
g6032
as(g4046
g539
tp6343
(lp6344
g540
as(g5581
g1321
tp6345
(lp6346
S'a'
as(g4883
g2841
tp6347
(lp6348
g4917
as(g1911
g1168
tp6349
(lp6350
g1169
ag3168
ag724
ag3973
ag6310
as(g2360
g4805
tp6351
(lp6352
g5433
as(g3340
g228
tp6353
(lp6354
g229
ag3733
as(g4516
g5662
tp6355
(lp6356
g1003
as(g3491
g4543
tp6357
(lp6358
S'from'
p6359
as(g2238
g2241
tp6360
(lp6361
S'the'
p6362
as(g810
g813
tp6363
(lp6364
g3739
as(g1810
g307
tp6365
(lp6366
g308
as(g4697
g5475
tp6367
(lp6368
g6136
as(g2319
g292
tp6369
(lp6370
g293
as(g1349
g1352
tp6371
(lp6372
g4233
as(S'a'
g3684
tp6373
(lp6374
g3685
as(g3595
g3598
tp6375
(lp6376
g1782
as(g3168
g2657
tp6377
(lp6378
g2658
as(g3518
g628
tp6379
(lp6380
g629
as(g1772
g885
tp6381
(lp6382
g886
as(g5999
g544
tp6383
(lp6384
g545
as(g4683
g4360
tp6385
(lp6386
S'a'
as(g423
g426
tp6387
(lp6388
S'the'
p6389
as(g5423
g3125
tp6390
(lp6391
g3126
as(g3766
g3769
tp6392
(lp6393
g6262
as(g1271
g2324
tp6394
(lp6395
g297
as(g6122
g6125
tp6396
(lp6397
g5110
as(g5039
g5462
tp6398
(lp6399
g5772
as(g1949
g6121
tp6400
(lp6401
g6122
as(g1113
g1387
tp6402
(lp6403
g504
as(g1789
g4988
tp6404
(lp6405
g2110
as(g6362
g4332
tp6406
(lp6407
g4333
as(S'and'
p6408
g3624
tp6409
(lp6410
g6113
as(g4850
g5212
tp6411
(lp6412
g5213
as(g4465
g5618
tp6413
(lp6414
g3226
ag5169
as(g3094
g3097
tp6415
(lp6416
g1898
as(g229
g232
tp6417
(lp6418
g5983
as(g2499
g1469
tp6419
(lp6420
g633
as(g3621
g1343
tp6421
(lp6422
g1344
ag1829
as(g5019
g514
tp6423
(lp6424
g515
as(g5433
g5436
tp6425
(lp6426
S'in'
p6427
as(g2133
g3084
tp6428
(lp6429
g3085
as(g3598
g1782
tp6430
(lp6431
g1783
as(g1242
g5938
tp6432
(lp6433
g2942
as(g3474
g3938
tp6434
(lp6435
g3939
as(g4388
g1795
tp6436
(lp6437
g1796
as(S'a'
g3669
tp6438
(lp6439
g3670
as(g3929
g386
tp6440
(lp6441
g387
as(g1513
g5282
tp6442
(lp6443
g2196
as(g3993
g4097
tp6444
(lp6445
g1093
as(g6136
g1103
tp6446
(lp6447
g1104
as(g2294
g2297
tp6448
(lp6449
g3428
as(g5541
g5604
tp6450
(lp6451
g4136
aS'were'
p6452
as(g5495
g5498
tp6453
(lp6454
g4417
as(g761
g453
tp6455
(lp6456
g454
as(g3129
g4437
tp6457
(lp6458
g3915
as(g2421
g3523
tp6459
(lp6460
g5544
as(g3554
g1114
tp6461
(lp6462
g1115
as(S'a'
g4308
tp6463
(lp6464
g47
as(g2733
g2736
tp6465
(lp6466
g1338
as(g976
g979
tp6467
(lp6468
g3282
as(g4429
g4432
tp6469
(lp6470
g4389
as(g857
g2100
tp6471
(lp6472
g2101
as(g3370
g2868
tp6473
(lp6474
g463
as(g1337
g2008
tp6475
(lp6476
g4956
aS'horses'
p6477
as(g4705
g5966
tp6478
(lp6479
g3139
as(g1220
g1223
tp6480
(lp6481
g2356
ag2780
as(g3058
g5951
tp6482
(lp6483
g6063
as(g5064
g5067
tp6484
(lp6485
S'betwixt'
p6486
as(g3041
g3044
tp6487
(lp6488
g3765
as(g4447
g6201
tp6489
(lp6490
g3261
as(g3514
g2495
tp6491
(lp6492
g2496
as(g4188
g1173
tp6493
(lp6494
g1867
as(g2216
g2567
tp6495
(lp6496
g5063
as(g3088
g1150
tp6497
(lp6498
g1151
as(g5200
g5702
tp6499
(lp6500
g6284
aS'found'
p6501
as(g3884
g3887
tp6502
(lp6503
g3858
as(g6284
g5060
tp6504
(lp6505
g2298
as(g2700
g2703
tp6506
(lp6507
g3264
as(g3482
g1205
tp6508
(lp6509
g1206
as(g5151
g4646
tp6510
(lp6511
g312
as(g4124
g3437
tp6512
(lp6513
g3438
as(g4226
g3221
tp6514
(lp6515
g3222
as(g1071
g4453
tp6516
(lp6517
g4679
as(g4086
g4089
tp6518
(lp6519
g5515
as(g3470
g3610
tp6520
(lp6521
g3611
ag1214
aS'itself,'
p6522
as(g4041
g3841
tp6523
(lp6524
g3842
ag5787
ag3811
aS'the'
p6525
ag2273
as(g1276
g3004
tp6526
(lp6527
g3005
as(g4543
g6359
tp6528
(lp6529
S'the'
p6530
as(g1146
g1149
tp6531
(lp6532
g4899
as(g3252
g4174
tp6533
(lp6534
g418
as(g6486
g3825
tp6535
(lp6536
g265
as(g1060
g3800
tp6537
(lp6538
g3801
as(g2514
g2517
tp6539
(lp6540
S'of'
p6541
as(g5515
g5518
tp6542
(lp6543
g5285
as(g1007
g276
tp6544
(lp6545
g277
as(g89
g92
tp6546
(lp6547
g1136
ag791
as(g1860
g1863
tp6548
(lp6549
g3570
as(g1022
g1025
tp6550
(lp6551
g3367
ag2072
ag684
aS'Ib'
p6552
ag3199
aS'Sarnath'
p6553
as(g1399
g483
tp6554
(lp6555
g302
as(g1540
g5613
tp6556
(lp6557
g1721
as(g2373
g77
tp6558
(lp6559
g4297
as(g3655
g3875
tp6560
(lp6561
S'which'
p6562
as(g1115
g1118
tp6563
(lp6564
g4061
as(g4398
g4907
tp6565
(lp6566
S'the'
p6567
as(g1629
g1632
tp6568
(lp6569
S'a'
as(g3238
g3241
tp6570
(lp6571
g1945
as(g3484
g3487
tp6572
(lp6573
g557
as(g3093
g3724
tp6574
(lp6575
g4394
as(g4888
g4017
tp6576
(lp6577
g2885
as(g5662
g1003
tp6578
(lp6579
g1004
as(g2736
g1338
tp6580
(lp6581
g1339
as(g510
g513
tp6582
(lp6583
g2459
as(g3052
g3055
tp6584
(lp6585
S'platters'
p6586
as(g1259
g1262
tp6587
(lp6588
g4500
as(g2501
g2504
tp6589
(lp6590
g2958
as(g5217
g3193
tp6591
(lp6592
g3194
as(g3322
g131
tp6593
(lp6594
g132
ag3567
as(g387
g390
tp6595
(lp6596
g6058
as(S'of'
p6597
g1967
tp6598
(lp6599
g3471
as(g1288
g2079
tp6600
(lp6601
g2921
aS'chiseled'
p6602
ag2361
as(g4908
g4911
tp6603
(lp6604
g6050
as(g1099
g1102
tp6605
(lp6606
g3313
as(g1362
g942
tp6607
(lp6608
g943
as(g3628
g4220
tp6609
(lp6610
g6235
as(g1294
g1297
tp6611
(lp6612
g3406
ag3869
as(g6552
g2680
tp6613
(lp6614
g1833
as(g561
g2824
tp6615
(lp6616
g2825
as(g1444
g1692
tp6617
(lp6618
g6164
as(g3463
g3466
tp6619
(lp6620
g5523
as(g3606
g3609
tp6621
(lp6622
S'men'
p6623
as(g2802
g3040
tp6624
(lp6625
g3041
as(g2119
g4257
tp6626
(lp6627
g4258
as(g436
g439
tp6628
(lp6629
g641
as(g1141
g1144
tp6630
(lp6631
g1383
as(g2743
g2746
tp6632
(lp6633
g2805
as(g1777
g1836
tp6634
(lp6635
g1837
as(g2134
g2137
tp6636
(lp6637
S'And'
p6638
as(g2910
g2913
tp6639
(lp6640
g2318
as(g1583
g1586
tp6641
(lp6642
g3644
as(g4425
g5247
tp6643
(lp6644
g1465
ag5354
ag655
ag3111
ag1693
ag3479
aS'gardens'
p6645
ag1800
ag3484
ag2418
ag5105
ag4395
aS'lake'
p6646
ag514
as(g2716
g2719
tp6647
(lp6648
g1677
as(g4898
g2909
tp6649
(lp6650
g2910
as(g4247
g5045
tp6651
(lp6652
g2402
as(g6032
g6035
tp6653
(lp6654
g1364
as(g3708
g5643
tp6655
(lp6656
g3876
as(g3292
g903
tp6657
(lp6658
g904
as(g4624
g4627
tp6659
(lp6660
g2720
as(g5851
g5779
tp6661
(lp6662
S'in'
p6663
as(g2951
g2871
tp6664
(lp6665
g2872
as(g3409
g3950
tp6666
(lp6667
g3951
as(g2900
g6079
tp6668
(lp6669
S'hundred'
p6670
as(g808
g870
tp6671
(lp6672
g4456
as(g127
g130
tp6673
(lp6674
g5483
as(g2747
g2513
tp6675
(lp6676
g2514
as(g1686
g1754
tp6677
(lp6678
g1067
as(g4740
g3291
tp6679
(lp6680
g3292
as(g1371
g1374
tp6681
(lp6682
g5501
as(g116
g1539
tp6683
(lp6684
g4441
as(g4503
g4936
tp6685
(lp6686
g4884
as(g1087
g5255
tp6687
(lp6688
g4711
ag1924
as(g2703
g3264
tp6689
(lp6690
g3151
as(g5436
g6427
tp6691
(lp6692
g1088
as(g3652
g6295
tp6693
(lp6694
g6086
ag6597
as(g1225
g1228
tp6695
(lp6696
g3051
as(g5082
g2533
tp6697
(lp6698
g2534
as(g258
g1353
tp6699
(lp6700
g1354
as(g3069
g985
tp6701
(lp6702
g986
ag5204
as(g392
g395
tp6703
(lp6704
g2380
as(g2231
g6038
tp6705
(lp6706
S'of'
p6707
as(g4186
g5619
tp6708
(lp6709
g5177
as(g316
g3620
tp6710
(lp6711
g3621
ag6408
as(g2370
g2406
tp6712
(lp6713
g2407
as(g3078
g4365
tp6714
(lp6715
g891
as(g2935
g2938
tp6716
(lp6717
g5309
as(g3433
g3436
tp6718
(lp6719
S'of'
p6720
as(g6125
g5110
tp6721
(lp6722
g2662
as(g1899
g1902
tp6723
(lp6724
g819
as(g5373
g4682
tp6725
(lp6726
g4683
as(g2835
g2122
tp6727
(lp6728
g2123
ag823
as(g2137
g6638
tp6729
(lp6730
S'the'
p6731
as(S'a'
g3366
tp6732
(lp6733
g5201
as(g3665
g3668
tp6734
(lp6735
g6026
as(g2470
g2473
tp6736
(lp6737
g3987
ag2631
as(g5498
g4417
tp6738
(lp6739
g4418
as(g979
g3282
tp6740
(lp6741
g2737
as(g2180
g213
tp6742
(lp6743
g214
as(g161
g702
tp6744
(lp6745
g1983
as(g3157
g1233
tp6746
(lp6747
g1234
as(g4130
g4698
tp6748
(lp6749
g1594
as(g4294
g4484
tp6750
(lp6751
S'eyes,'
p6752
as(g3237
g4382
tp6753
(lp6754
g317
ag3579
ag228
aS'did'
p6755
as(g2596
g2599
tp6756
(lp6757
g3845
as(g5833
g3883
tp6758
(lp6759
g3884
as(g916
g4339
tp6760
(lp6761
g4340
as(g6038
g6707
tp6762
(lp6763
g4561
as(g303
g306
tp6764
(lp6765
g1409
as(g1572
g3550
tp6766
(lp6767
g3551
aS'Tamash'
p6768
as(g2206
g2209
tp6769
(lp6770
g3943
ag5687
ag6101
ag4332
ag5407
ag3924
ag534
ag1156
as(g2444
g1716
tp6771
(lp6772
g1717
as(g5931
g757
tp6773
(lp6774
g758
as(g5938
g2942
tp6775
(lp6776
g2943
as(g3551
g2082
tp6777
(lp6778
g2083
ag1114
as(g5983
g2474
tp6779
(lp6780
g2475
as(g3987
g3990
tp6781
(lp6782
g4981
ag863
ag2000
as(g5067
g6486
tp6783
(lp6784
g3825
as(g5462
g5772
tp6785
(lp6786
g5358
as(g1317
g1320
tp6787
(lp6788
g1921
as(g6707
g4561
tp6789
(lp6790
g4562
as(g5779
g6663
tp6791
(lp6792
g1238
as(g22
g1966
tp6793
(lp6794
g3749
as(g2280
g2283
tp6795
(lp6796
S'a'
as(g592
g595
tp6797
(lp6798
g2747
ag3413
ag1358
aS'lake'
p6799
as(g3587
g3863
tp6800
(lp6801
g223
ag413
ag4943
as(g2946
g3427
tp6802
(lp6803
g3923
as.